	.section	__TEXT,__text,regular,pure_instructions
	.build_version macos, 11, 0	sdk_version 11, 1
	.intel_syntax noprefix
	.file	1 "/usr/local/opt/llvm/bin/../include/c++/v1" "ios"
	.file	2 "/usr/local/Cellar/llvm/11.0.1/lib/clang/11.0.1/include" "stddef.h"
	.file	3 "/usr/local/opt/llvm/bin/../include/c++/v1" "__locale"
	.file	4 "/usr/local/opt/llvm/bin/../include/c++/v1" "string"
	.file	5 "/usr/local/opt/llvm/bin/../include/c++/v1" "memory"
	.file	6 "/usr/local/opt/llvm/bin/../include/c++/v1" "type_traits"
	.file	7 "/usr/local/opt/llvm/bin/../include/c++/v1" "initializer_list"
	.file	8 "/usr/local/opt/llvm/bin/../include/c++/v1" "string_view"
	.file	9 "/usr/local/opt/llvm/bin/../include/c++/v1" "__string"
	.file	10 "/usr/local/opt/llvm/bin/../include/c++/v1" "iosfwd"
	.file	11 "/usr/local/opt/llvm/bin/../include/c++/v1" "mutex"
	.file	12 "/Applications/Xcode.app/Contents/Developer/Platforms/MacOSX.platform/Developer/SDKs/MacOSX.sdk/usr/include/sys/_types" "_int32_t.h"
	.file	13 "/usr/local/opt/llvm/bin/../include/c++/v1" "iterator"
	.file	14 "/usr/local/opt/llvm/bin/../include/c++/v1" "streambuf"
	.file	15 "/usr/local/opt/llvm/bin/../include/c++/v1" "ostream"
	.file	16 "/usr/local/opt/llvm/bin/../include/c++/v1" "__nullptr"
	.file	17 "/usr/local/opt/llvm/bin/../include/c++/v1" "stddef.h"
	.file	18 "/usr/local/opt/llvm/bin/../include/c++/v1" "cstddef"
	.file	19 "/usr/local/Cellar/llvm/11.0.1/lib/clang/11.0.1/include" "__stddef_max_align_t.h"
	.file	20 "/usr/local/opt/llvm/bin/../include/c++/v1" "cstring"
	.file	21 "/Applications/Xcode.app/Contents/Developer/Platforms/MacOSX.platform/Developer/SDKs/MacOSX.sdk/usr/include" "string.h"
	.file	22 "/usr/local/opt/llvm/bin/../include/c++/v1" "string.h"
	.file	23 "/Applications/Xcode.app/Contents/Developer/Platforms/MacOSX.platform/Developer/SDKs/MacOSX.sdk/usr/include/sys/_types" "_int8_t.h"
	.file	24 "/usr/local/opt/llvm/bin/../include/c++/v1" "cstdint"
	.file	25 "/Applications/Xcode.app/Contents/Developer/Platforms/MacOSX.platform/Developer/SDKs/MacOSX.sdk/usr/include/sys/_types" "_int16_t.h"
	.file	26 "/Applications/Xcode.app/Contents/Developer/Platforms/MacOSX.platform/Developer/SDKs/MacOSX.sdk/usr/include/sys/_types" "_int64_t.h"
	.file	27 "/Applications/Xcode.app/Contents/Developer/Platforms/MacOSX.platform/Developer/SDKs/MacOSX.sdk/usr/include/_types" "_uint8_t.h"
	.file	28 "/Applications/Xcode.app/Contents/Developer/Platforms/MacOSX.platform/Developer/SDKs/MacOSX.sdk/usr/include/_types" "_uint16_t.h"
	.file	29 "/Applications/Xcode.app/Contents/Developer/Platforms/MacOSX.platform/Developer/SDKs/MacOSX.sdk/usr/include/_types" "_uint32_t.h"
	.file	30 "/Applications/Xcode.app/Contents/Developer/Platforms/MacOSX.platform/Developer/SDKs/MacOSX.sdk/usr/include/_types" "_uint64_t.h"
	.file	31 "/Applications/Xcode.app/Contents/Developer/Platforms/MacOSX.platform/Developer/SDKs/MacOSX.sdk/usr/include" "stdint.h"
	.file	32 "/Applications/Xcode.app/Contents/Developer/Platforms/MacOSX.platform/Developer/SDKs/MacOSX.sdk/usr/include/i386" "_types.h"
	.file	33 "/Applications/Xcode.app/Contents/Developer/Platforms/MacOSX.platform/Developer/SDKs/MacOSX.sdk/usr/include/sys/_types" "_intptr_t.h"
	.file	34 "/Applications/Xcode.app/Contents/Developer/Platforms/MacOSX.platform/Developer/SDKs/MacOSX.sdk/usr/include/sys/_types" "_uintptr_t.h"
	.file	35 "/Applications/Xcode.app/Contents/Developer/Platforms/MacOSX.platform/Developer/SDKs/MacOSX.sdk/usr/include/_types" "_intmax_t.h"
	.file	36 "/Applications/Xcode.app/Contents/Developer/Platforms/MacOSX.platform/Developer/SDKs/MacOSX.sdk/usr/include/_types" "_uintmax_t.h"
	.file	37 "/usr/local/opt/llvm/bin/../include/c++/v1" "cstdlib"
	.file	38 "/Applications/Xcode.app/Contents/Developer/Platforms/MacOSX.platform/Developer/SDKs/MacOSX.sdk/usr/include" "stdlib.h"
	.file	39 "/Applications/Xcode.app/Contents/Developer/Platforms/MacOSX.platform/Developer/SDKs/MacOSX.sdk/usr/include/malloc" "_malloc.h"
	.file	40 "/usr/local/opt/llvm/bin/../include/c++/v1" "stdlib.h"
	.file	41 "/Applications/Xcode.app/Contents/Developer/Platforms/MacOSX.platform/Developer/SDKs/MacOSX.sdk/usr/include/sys/_types" "_clock_t.h"
	.file	42 "/usr/local/opt/llvm/bin/../include/c++/v1" "ctime"
	.file	43 "/Applications/Xcode.app/Contents/Developer/Platforms/MacOSX.platform/Developer/SDKs/MacOSX.sdk/usr/include/sys/_types" "_time_t.h"
	.file	44 "/Applications/Xcode.app/Contents/Developer/Platforms/MacOSX.platform/Developer/SDKs/MacOSX.sdk/usr/include" "time.h"
	.file	45 "/usr/local/opt/llvm/bin/../include/c++/v1" "chrono"
	.file	46 "/Applications/Xcode.app/Contents/Developer/Platforms/MacOSX.platform/Developer/SDKs/MacOSX.sdk/usr/include" "_stdio.h"
	.file	47 "/Applications/Xcode.app/Contents/Developer/Platforms/MacOSX.platform/Developer/SDKs/MacOSX.sdk/usr/include/sys" "_types.h"
	.file	48 "/usr/local/opt/llvm/bin/../include/c++/v1" "cstdio"
	.file	49 "/Applications/Xcode.app/Contents/Developer/Platforms/MacOSX.platform/Developer/SDKs/MacOSX.sdk/usr/include" "stdio.h"
	.file	50 "/Applications/Xcode.app/Contents/Developer/Platforms/MacOSX.platform/Developer/SDKs/MacOSX.sdk/usr/include" "_ctype.h"
	.file	51 "/usr/local/opt/llvm/bin/../include/c++/v1" "cctype"
	.file	52 "/Applications/Xcode.app/Contents/Developer/Platforms/MacOSX.platform/Developer/SDKs/MacOSX.sdk/usr/include/sys/_types" "_wint_t.h"
	.file	53 "/usr/local/opt/llvm/bin/../include/c++/v1" "cwctype"
	.file	54 "/Applications/Xcode.app/Contents/Developer/Platforms/MacOSX.platform/Developer/SDKs/MacOSX.sdk/usr/include" "_types.h"
	.file	55 "/Applications/Xcode.app/Contents/Developer/Platforms/MacOSX.platform/Developer/SDKs/MacOSX.sdk/usr/include/_types" "_wctrans_t.h"
	.file	56 "/Applications/Xcode.app/Contents/Developer/Platforms/MacOSX.platform/Developer/SDKs/MacOSX.sdk/usr/include/_types" "_wctype_t.h"
	.file	57 "/Applications/Xcode.app/Contents/Developer/Platforms/MacOSX.platform/Developer/SDKs/MacOSX.sdk/usr/include" "_wctype.h"
	.file	58 "/Applications/Xcode.app/Contents/Developer/Platforms/MacOSX.platform/Developer/SDKs/MacOSX.sdk/usr/include" "wctype.h"
	.file	59 "/Applications/Xcode.app/Contents/Developer/Platforms/MacOSX.platform/Developer/SDKs/MacOSX.sdk/usr/include/sys/_types" "_mbstate_t.h"
	.file	60 "/usr/local/opt/llvm/bin/../include/c++/v1" "cwchar"
	.file	61 "/Applications/Xcode.app/Contents/Developer/Platforms/MacOSX.platform/Developer/SDKs/MacOSX.sdk/usr/include" "wchar.h"
	.file	62 "/usr/local/opt/llvm/bin/../include/c++/v1" "wchar.h"
	.file	63 "/Users/lukeanglin/Desktop/CS2150/lab8/prelab" "main.cpp"
	.globl	_main                           ## -- Begin function main
	.p2align	4, 0x90
_main:                                  ## @main
Lfunc_begin0:
	.loc	63 17 0                         ## main.cpp:17:0
	.cfi_startproc
## %bb.0:
	push	rbp
	.cfi_def_cfa_offset 16
	.cfi_offset rbp, -16
	mov	rbp, rsp
	.cfi_def_cfa_register rbp
	sub	rsp, 64
	mov	rdi, qword ptr [rip + __ZNSt3__14coutE@GOTPCREL]
	mov	dword ptr [rbp - 4], 0
Ltmp0:
	.loc	63 23 10 prologue_end           ## main.cpp:23:10
	lea	rsi, [rip + L_.str]
	call	__ZNSt3__1lsINS_11char_traitsIcEEEERNS_13basic_ostreamIcT_EES6_PKc
	mov	rdi, qword ptr [rip + __ZNSt3__13cinE@GOTPCREL]
	.loc	63 24 9                         ## main.cpp:24:9
	lea	rsi, [rbp - 16]
	mov	qword ptr [rbp - 48], rax       ## 8-byte Spill
	call	__ZNSt3__113basic_istreamIcNS_11char_traitsIcEEErsERl
Ltmp1:
	.loc	63 27 11                        ## main.cpp:27:11
	cmp	qword ptr [rbp - 16], 0
Ltmp2:
	.loc	63 27 9 is_stmt 0               ## main.cpp:27:9
	jg	LBB0_2
## %bb.1:
	.loc	63 0 9                          ## main.cpp:0:9
	mov	rdi, qword ptr [rip + __ZNSt3__14cerrE@GOTPCREL]
Ltmp3:
	.loc	63 28 14 is_stmt 1              ## main.cpp:28:14
	lea	rsi, [rip + L_.str.1]
	call	__ZNSt3__1lsINS_11char_traitsIcEEEERNS_13basic_ostreamIcT_EES6_PKc
	.loc	63 29 9                         ## main.cpp:29:9
	mov	dword ptr [rbp - 4], 1
	jmp	LBB0_9
Ltmp4:
LBB0_2:
	.loc	63 33 20                        ## main.cpp:33:20
	mov	rax, qword ptr [rbp - 16]
	.loc	63 33 11 is_stmt 0              ## main.cpp:33:11
	mov	ecx, 8
	mul	rcx
	seto	sil
	mov	rcx, -1
	cmovo	rax, rcx
	mov	rdi, rax
	mov	byte ptr [rbp - 49], sil        ## 1-byte Spill
	call	__Znam
	xor	r8d, r8d
	mov	edi, r8d
	.loc	63 33 9                         ## main.cpp:33:9
	mov	qword ptr [rbp - 24], rax
	.loc	63 36 22 is_stmt 1              ## main.cpp:36:22
	call	_time
                                        ## kill: def $eax killed $eax killed $rax
	.loc	63 36 5 is_stmt 0               ## main.cpp:36:5
	mov	edi, eax
	call	_srand
Ltmp5:
	.loc	63 39 15 is_stmt 1              ## main.cpp:39:15
	mov	qword ptr [rbp - 40], 0
LBB0_3:                                 ## =>This Inner Loop Header: Depth=1
Ltmp6:
	.loc	63 39 22 is_stmt 0              ## main.cpp:39:22
	mov	rax, qword ptr [rbp - 40]
	.loc	63 39 24                        ## main.cpp:39:24
	cmp	rax, qword ptr [rbp - 16]
Ltmp7:
	.loc	63 39 5                         ## main.cpp:39:5
	jge	LBB0_6
## %bb.4:                               ##   in Loop: Header=BB0_3 Depth=1
Ltmp8:
	.loc	63 40 18 is_stmt 1              ## main.cpp:40:18
	call	_rand
	mov	rdi, qword ptr [rip + __ZNSt3__14coutE@GOTPCREL]
	.loc	63 40 25 is_stmt 0              ## main.cpp:40:25
	cdq
	mov	ecx, 100
	idiv	ecx
	.loc	63 40 18                        ## main.cpp:40:18
	movsxd	rsi, edx
	.loc	63 40 9                         ## main.cpp:40:9
	mov	r8, qword ptr [rbp - 24]
	.loc	63 40 13                        ## main.cpp:40:13
	mov	r9, qword ptr [rbp - 40]
	.loc	63 40 16                        ## main.cpp:40:16
	mov	qword ptr [r8 + 8*r9], rsi
	.loc	63 41 14 is_stmt 1              ## main.cpp:41:14
	lea	rsi, [rip + L_.str.2]
	call	__ZNSt3__1lsINS_11char_traitsIcEEEERNS_13basic_ostreamIcT_EES6_PKc
	.loc	63 41 29 is_stmt 0              ## main.cpp:41:29
	mov	rsi, qword ptr [rbp - 40]
	.loc	63 41 26                        ## main.cpp:41:26
	mov	rdi, rax
	call	__ZNSt3__113basic_ostreamIcNS_11char_traitsIcEEElsEl
	.loc	63 41 31                        ## main.cpp:41:31
	mov	rdi, rax
	lea	rsi, [rip + L_.str.3]
	call	__ZNSt3__1lsINS_11char_traitsIcEEEERNS_13basic_ostreamIcT_EES6_PKc
	.loc	63 41 44                        ## main.cpp:41:44
	mov	rsi, qword ptr [rbp - 24]
	.loc	63 41 48                        ## main.cpp:41:48
	mov	rdi, qword ptr [rbp - 40]
	.loc	63 41 44                        ## main.cpp:41:44
	mov	rsi, qword ptr [rsi + 8*rdi]
	.loc	63 41 41                        ## main.cpp:41:41
	mov	rdi, rax
	call	__ZNSt3__113basic_ostreamIcNS_11char_traitsIcEEElsEl
	mov	rsi, qword ptr [rip + __ZNSt3__14endlIcNS_11char_traitsIcEEEERNS_13basic_ostreamIT_T0_EES7_@GOTPCREL]
	.loc	63 41 51                        ## main.cpp:41:51
	mov	rdi, rax
	call	__ZNSt3__113basic_ostreamIcNS_11char_traitsIcEEElsEPFRS3_S4_E
Ltmp9:
## %bb.5:                               ##   in Loop: Header=BB0_3 Depth=1
	.loc	63 39 29 is_stmt 1              ## main.cpp:39:29
	mov	rax, qword ptr [rbp - 40]
	add	rax, 1
	mov	qword ptr [rbp - 40], rax
	.loc	63 39 5 is_stmt 0               ## main.cpp:39:5
	jmp	LBB0_3
Ltmp10:
LBB0_6:
	.loc	63 45 18 is_stmt 1              ## main.cpp:45:18
	mov	rdi, qword ptr [rbp - 24]
	.loc	63 45 23 is_stmt 0              ## main.cpp:45:23
	mov	rsi, qword ptr [rbp - 16]
	.loc	63 45 11                        ## main.cpp:45:11
	call	_vecsum
	mov	rdi, qword ptr [rip + __ZNSt3__14coutE@GOTPCREL]
	.loc	63 45 9                         ## main.cpp:45:9
	mov	qword ptr [rbp - 32], rax
	.loc	63 46 10 is_stmt 1              ## main.cpp:46:10
	lea	rsi, [rip + L_.str.4]
	call	__ZNSt3__1lsINS_11char_traitsIcEEEERNS_13basic_ostreamIcT_EES6_PKc
	.loc	63 46 52 is_stmt 0              ## main.cpp:46:52
	mov	rsi, qword ptr [rbp - 32]
	.loc	63 46 49                        ## main.cpp:46:49
	mov	rdi, rax
	call	__ZNSt3__113basic_ostreamIcNS_11char_traitsIcEEElsEl
	mov	rsi, qword ptr [rip + __ZNSt3__14endlIcNS_11char_traitsIcEEEERNS_13basic_ostreamIT_T0_EES7_@GOTPCREL]
	.loc	63 46 56                        ## main.cpp:46:56
	mov	rdi, rax
	call	__ZNSt3__113basic_ostreamIcNS_11char_traitsIcEEElsEPFRS3_S4_E
	.loc	63 49 15 is_stmt 1              ## main.cpp:49:15
	mov	rcx, qword ptr [rbp - 24]
	.loc	63 49 5 is_stmt 0               ## main.cpp:49:5
	cmp	rcx, 0
	mov	qword ptr [rbp - 64], rcx       ## 8-byte Spill
	je	LBB0_8
## %bb.7:
	.loc	63 0 5                          ## main.cpp:0:5
	mov	rax, qword ptr [rbp - 64]       ## 8-byte Reload
	.loc	63 49 5                         ## main.cpp:49:5
	mov	rdi, rax
	call	__ZdaPv
LBB0_8:
	.loc	63 52 5 is_stmt 1               ## main.cpp:52:5
	mov	dword ptr [rbp - 4], 0
LBB0_9:
	.loc	63 53 1                         ## main.cpp:53:1
	mov	eax, dword ptr [rbp - 4]
	add	rsp, 64
	pop	rbp
	ret
Ltmp11:
Lfunc_end0:
	.cfi_endproc
                                        ## -- End function
	.globl	__ZNSt3__1lsINS_11char_traitsIcEEEERNS_13basic_ostreamIcT_EES6_PKc ## -- Begin function _ZNSt3__1lsINS_11char_traitsIcEEEERNS_13basic_ostreamIcT_EES6_PKc
	.weak_definition	__ZNSt3__1lsINS_11char_traitsIcEEEERNS_13basic_ostreamIcT_EES6_PKc
	.p2align	4, 0x90
__ZNSt3__1lsINS_11char_traitsIcEEEERNS_13basic_ostreamIcT_EES6_PKc: ## @_ZNSt3__1lsINS_11char_traitsIcEEEERNS_13basic_ostreamIcT_EES6_PKc
Lfunc_begin1:
	.loc	15 868 0                        ## /usr/local/opt/llvm/bin/../include/c++/v1/ostream:868:0
	.cfi_startproc
## %bb.0:
	push	rbp
	.cfi_def_cfa_offset 16
	.cfi_offset rbp, -16
	mov	rbp, rsp
	.cfi_def_cfa_register rbp
	sub	rsp, 32
	mov	qword ptr [rbp - 8], rdi
	mov	qword ptr [rbp - 16], rsi
Ltmp12:
	.loc	15 869 44 prologue_end          ## /usr/local/opt/llvm/bin/../include/c++/v1/ostream:869:44
	mov	rdi, qword ptr [rbp - 8]
	.loc	15 869 50 is_stmt 0             ## /usr/local/opt/llvm/bin/../include/c++/v1/ostream:869:50
	mov	rsi, qword ptr [rbp - 16]
	.loc	15 869 73                       ## /usr/local/opt/llvm/bin/../include/c++/v1/ostream:869:73
	mov	rax, qword ptr [rbp - 16]
	mov	qword ptr [rbp - 24], rdi       ## 8-byte Spill
	.loc	15 869 57                       ## /usr/local/opt/llvm/bin/../include/c++/v1/ostream:869:57
	mov	rdi, rax
	mov	qword ptr [rbp - 32], rsi       ## 8-byte Spill
	call	__ZNSt3__111char_traitsIcE6lengthEPKc
	mov	rdi, qword ptr [rbp - 24]       ## 8-byte Reload
	mov	rsi, qword ptr [rbp - 32]       ## 8-byte Reload
	.loc	15 869 12                       ## /usr/local/opt/llvm/bin/../include/c++/v1/ostream:869:12
	mov	rdx, rax
	call	__ZNSt3__124__put_character_sequenceIcNS_11char_traitsIcEEEERNS_13basic_ostreamIT_T0_EES7_PKS4_m
	.loc	15 869 5                        ## /usr/local/opt/llvm/bin/../include/c++/v1/ostream:869:5
	add	rsp, 32
	pop	rbp
	ret
Ltmp13:
Lfunc_end1:
	.cfi_endproc
                                        ## -- End function
	.private_extern	__ZNSt3__113basic_ostreamIcNS_11char_traitsIcEEElsEPFRS3_S4_E ## -- Begin function _ZNSt3__113basic_ostreamIcNS_11char_traitsIcEEElsEPFRS3_S4_E
	.globl	__ZNSt3__113basic_ostreamIcNS_11char_traitsIcEEElsEPFRS3_S4_E
	.weak_definition	__ZNSt3__113basic_ostreamIcNS_11char_traitsIcEEElsEPFRS3_S4_E
	.p2align	4, 0x90
__ZNSt3__113basic_ostreamIcNS_11char_traitsIcEEElsEPFRS3_S4_E: ## @_ZNSt3__113basic_ostreamIcNS_11char_traitsIcEEElsEPFRS3_S4_E
Lfunc_begin2:
	.loc	15 196 0 is_stmt 1              ## /usr/local/opt/llvm/bin/../include/c++/v1/ostream:196:0
	.cfi_startproc
## %bb.0:
	push	rbp
	.cfi_def_cfa_offset 16
	.cfi_offset rbp, -16
	mov	rbp, rsp
	.cfi_def_cfa_register rbp
	sub	rsp, 16
	mov	qword ptr [rbp - 8], rdi
	mov	qword ptr [rbp - 16], rsi
	mov	rdi, qword ptr [rbp - 8]
Ltmp14:
	.loc	15 196 14 prologue_end          ## /usr/local/opt/llvm/bin/../include/c++/v1/ostream:196:14
	call	qword ptr [rbp - 16]
	.loc	15 196 7 is_stmt 0              ## /usr/local/opt/llvm/bin/../include/c++/v1/ostream:196:7
	add	rsp, 16
	pop	rbp
	ret
Ltmp15:
Lfunc_end2:
	.cfi_endproc
                                        ## -- End function
	.globl	__ZNSt3__14endlIcNS_11char_traitsIcEEEERNS_13basic_ostreamIT_T0_EES7_ ## -- Begin function _ZNSt3__14endlIcNS_11char_traitsIcEEEERNS_13basic_ostreamIT_T0_EES7_
	.weak_definition	__ZNSt3__14endlIcNS_11char_traitsIcEEEERNS_13basic_ostreamIT_T0_EES7_
	.p2align	4, 0x90
__ZNSt3__14endlIcNS_11char_traitsIcEEEERNS_13basic_ostreamIT_T0_EES7_: ## @_ZNSt3__14endlIcNS_11char_traitsIcEEEERNS_13basic_ostreamIT_T0_EES7_
Lfunc_begin3:
	.loc	15 1005 0 is_stmt 1             ## /usr/local/opt/llvm/bin/../include/c++/v1/ostream:1005:0
	.cfi_startproc
## %bb.0:
	push	rbp
	.cfi_def_cfa_offset 16
	.cfi_offset rbp, -16
	mov	rbp, rsp
	.cfi_def_cfa_register rbp
	sub	rsp, 32
	mov	qword ptr [rbp - 8], rdi
Ltmp16:
	.loc	15 1006 5 prologue_end          ## /usr/local/opt/llvm/bin/../include/c++/v1/ostream:1006:5
	mov	rdi, qword ptr [rbp - 8]
	.loc	15 1006 14 is_stmt 0            ## /usr/local/opt/llvm/bin/../include/c++/v1/ostream:1006:14
	mov	rax, qword ptr [rbp - 8]
	mov	rcx, qword ptr [rax]
	mov	rcx, qword ptr [rcx - 24]
	add	rax, rcx
	mov	qword ptr [rbp - 16], rdi       ## 8-byte Spill
	.loc	15 1006 19                      ## /usr/local/opt/llvm/bin/../include/c++/v1/ostream:1006:19
	mov	rdi, rax
	mov	esi, 10
	call	__ZNKSt3__19basic_iosIcNS_11char_traitsIcEEE5widenEc
	mov	rdi, qword ptr [rbp - 16]       ## 8-byte Reload
	.loc	15 1006 10                      ## /usr/local/opt/llvm/bin/../include/c++/v1/ostream:1006:10
	movsx	esi, al
	call	__ZNSt3__113basic_ostreamIcNS_11char_traitsIcEEE3putEc
	.loc	15 1007 5 is_stmt 1             ## /usr/local/opt/llvm/bin/../include/c++/v1/ostream:1007:5
	mov	rdi, qword ptr [rbp - 8]
	mov	qword ptr [rbp - 24], rax       ## 8-byte Spill
	.loc	15 1007 10 is_stmt 0            ## /usr/local/opt/llvm/bin/../include/c++/v1/ostream:1007:10
	call	__ZNSt3__113basic_ostreamIcNS_11char_traitsIcEEE5flushEv
	.loc	15 1008 12 is_stmt 1            ## /usr/local/opt/llvm/bin/../include/c++/v1/ostream:1008:12
	mov	rcx, qword ptr [rbp - 8]
	mov	qword ptr [rbp - 32], rax       ## 8-byte Spill
	.loc	15 1008 5 is_stmt 0             ## /usr/local/opt/llvm/bin/../include/c++/v1/ostream:1008:5
	mov	rax, rcx
	add	rsp, 32
	pop	rbp
	ret
Ltmp17:
Lfunc_end3:
	.cfi_endproc
                                        ## -- End function
	.globl	__ZNSt3__124__put_character_sequenceIcNS_11char_traitsIcEEEERNS_13basic_ostreamIT_T0_EES7_PKS4_m ## -- Begin function _ZNSt3__124__put_character_sequenceIcNS_11char_traitsIcEEEERNS_13basic_ostreamIT_T0_EES7_PKS4_m
	.weak_definition	__ZNSt3__124__put_character_sequenceIcNS_11char_traitsIcEEEERNS_13basic_ostreamIT_T0_EES7_PKS4_m
	.p2align	4, 0x90
__ZNSt3__124__put_character_sequenceIcNS_11char_traitsIcEEEERNS_13basic_ostreamIT_T0_EES7_PKS4_m: ## @_ZNSt3__124__put_character_sequenceIcNS_11char_traitsIcEEEERNS_13basic_ostreamIT_T0_EES7_PKS4_m
Lfunc_begin4:
	.loc	15 721 0 is_stmt 1              ## /usr/local/opt/llvm/bin/../include/c++/v1/ostream:721:0
	.cfi_startproc
	.cfi_personality 155, ___gxx_personality_v0
	.cfi_lsda 16, Lexception0
## %bb.0:
	push	rbp
	.cfi_def_cfa_offset 16
	.cfi_offset rbp, -16
	mov	rbp, rsp
	.cfi_def_cfa_register rbp
	sub	rsp, 160
	mov	qword ptr [rbp - 8], rdi
	mov	qword ptr [rbp - 16], rsi
	mov	qword ptr [rbp - 24], rdx
Ltmp38:
	.loc	15 726 61 prologue_end          ## /usr/local/opt/llvm/bin/../include/c++/v1/ostream:726:61
	mov	rsi, qword ptr [rbp - 8]
Ltmp18:
	lea	rdi, [rbp - 40]
	.loc	15 726 57 is_stmt 0             ## /usr/local/opt/llvm/bin/../include/c++/v1/ostream:726:57
	call	__ZNSt3__113basic_ostreamIcNS_11char_traitsIcEEE6sentryC1ERS3_
Ltmp19:
	jmp	LBB4_1
LBB4_1:
Ltmp21:
	.loc	15 0 57                         ## /usr/local/opt/llvm/bin/../include/c++/v1/ostream:0:57
	lea	rdi, [rbp - 40]
Ltmp39:
	.loc	15 727 13 is_stmt 1             ## /usr/local/opt/llvm/bin/../include/c++/v1/ostream:727:13
	call	__ZNKSt3__113basic_ostreamIcNS_11char_traitsIcEEE6sentrycvbEv
Ltmp22:
	mov	byte ptr [rbp - 73], al         ## 1-byte Spill
	jmp	LBB4_2
Ltmp40:
LBB4_2:
	.loc	15 0 13 is_stmt 0               ## /usr/local/opt/llvm/bin/../include/c++/v1/ostream:0:13
	mov	al, byte ptr [rbp - 73]         ## 1-byte Reload
	.loc	15 727 13                       ## /usr/local/opt/llvm/bin/../include/c++/v1/ostream:727:13
	test	al, 1
	jne	LBB4_3
	jmp	LBB4_18
LBB4_3:
Ltmp41:
	.loc	15 730 38 is_stmt 1             ## /usr/local/opt/llvm/bin/../include/c++/v1/ostream:730:38
	mov	rsi, qword ptr [rbp - 8]
	lea	rdi, [rbp - 72]
	.loc	15 730 34 is_stmt 0             ## /usr/local/opt/llvm/bin/../include/c++/v1/ostream:730:34
	call	__ZNSt3__119ostreambuf_iteratorIcNS_11char_traitsIcEEEC1ERNS_13basic_ostreamIcS2_EE
	.loc	15 731 34 is_stmt 1             ## /usr/local/opt/llvm/bin/../include/c++/v1/ostream:731:34
	mov	rsi, qword ptr [rbp - 16]
	.loc	15 732 35                       ## /usr/local/opt/llvm/bin/../include/c++/v1/ostream:732:35
	mov	rax, qword ptr [rbp - 8]
	mov	rcx, qword ptr [rax]
	mov	rcx, qword ptr [rcx - 24]
	add	rax, rcx
Ltmp23:
	.loc	15 732 40 is_stmt 0             ## /usr/local/opt/llvm/bin/../include/c++/v1/ostream:732:40
	mov	rdi, rax
	mov	qword ptr [rbp - 88], rsi       ## 8-byte Spill
	call	__ZNKSt3__18ios_base5flagsEv
Ltmp24:
	mov	dword ptr [rbp - 92], eax       ## 4-byte Spill
	jmp	LBB4_4
LBB4_4:
	.loc	15 0 40                         ## /usr/local/opt/llvm/bin/../include/c++/v1/ostream:0:40
	mov	eax, dword ptr [rbp - 92]       ## 4-byte Reload
	.loc	15 732 48                       ## /usr/local/opt/llvm/bin/../include/c++/v1/ostream:732:48
	and	eax, 176
	.loc	15 732 73                       ## /usr/local/opt/llvm/bin/../include/c++/v1/ostream:732:73
	cmp	eax, 32
	.loc	15 732 34                       ## /usr/local/opt/llvm/bin/../include/c++/v1/ostream:732:34
	jne	LBB4_6
## %bb.5:
	.loc	15 733 38 is_stmt 1             ## /usr/local/opt/llvm/bin/../include/c++/v1/ostream:733:38
	mov	rax, qword ptr [rbp - 16]
	.loc	15 733 44 is_stmt 0             ## /usr/local/opt/llvm/bin/../include/c++/v1/ostream:733:44
	add	rax, qword ptr [rbp - 24]
	mov	qword ptr [rbp - 104], rax      ## 8-byte Spill
	.loc	15 732 34 is_stmt 1             ## /usr/local/opt/llvm/bin/../include/c++/v1/ostream:732:34
	jmp	LBB4_7
LBB4_6:
	.loc	15 734 38                       ## /usr/local/opt/llvm/bin/../include/c++/v1/ostream:734:38
	mov	rax, qword ptr [rbp - 16]
	mov	qword ptr [rbp - 104], rax      ## 8-byte Spill
LBB4_7:
	.loc	15 0 38 is_stmt 0               ## /usr/local/opt/llvm/bin/../include/c++/v1/ostream:0:38
	mov	rax, qword ptr [rbp - 104]      ## 8-byte Reload
	.loc	15 735 34 is_stmt 1             ## /usr/local/opt/llvm/bin/../include/c++/v1/ostream:735:34
	mov	rcx, qword ptr [rbp - 16]
	.loc	15 735 42 is_stmt 0             ## /usr/local/opt/llvm/bin/../include/c++/v1/ostream:735:42
	mov	rdx, qword ptr [rbp - 24]
	.loc	15 735 40                       ## /usr/local/opt/llvm/bin/../include/c++/v1/ostream:735:40
	add	rcx, rdx
	.loc	15 736 34 is_stmt 1             ## /usr/local/opt/llvm/bin/../include/c++/v1/ostream:736:34
	mov	rdx, qword ptr [rbp - 8]
	mov	rsi, qword ptr [rdx]
	mov	rsi, qword ptr [rsi - 24]
	add	rdx, rsi
Ltmp25:
	.loc	15 737 39                       ## /usr/local/opt/llvm/bin/../include/c++/v1/ostream:737:39
	mov	rdi, rdx
	mov	qword ptr [rbp - 112], rax      ## 8-byte Spill
	mov	qword ptr [rbp - 120], rcx      ## 8-byte Spill
	mov	qword ptr [rbp - 128], rdx      ## 8-byte Spill
	call	__ZNKSt3__19basic_iosIcNS_11char_traitsIcEEE4fillEv
Ltmp26:
	mov	byte ptr [rbp - 129], al        ## 1-byte Spill
	jmp	LBB4_8
LBB4_8:
	.loc	15 730 17                       ## /usr/local/opt/llvm/bin/../include/c++/v1/ostream:730:17
	mov	rdi, qword ptr [rbp - 72]
Ltmp27:
	mov	al, byte ptr [rbp - 129]        ## 1-byte Reload
	movsx	r9d, al
	mov	rsi, qword ptr [rbp - 88]       ## 8-byte Reload
	mov	rdx, qword ptr [rbp - 112]      ## 8-byte Reload
	mov	rcx, qword ptr [rbp - 120]      ## 8-byte Reload
	mov	r8, qword ptr [rbp - 128]       ## 8-byte Reload
	call	__ZNSt3__116__pad_and_outputIcNS_11char_traitsIcEEEENS_19ostreambuf_iteratorIT_T0_EES6_PKS4_S8_S8_RNS_8ios_baseES4_
Ltmp28:
	mov	qword ptr [rbp - 144], rax      ## 8-byte Spill
	jmp	LBB4_9
LBB4_9:
	.loc	15 0 17 is_stmt 0               ## /usr/local/opt/llvm/bin/../include/c++/v1/ostream:0:17
	mov	rax, qword ptr [rbp - 144]      ## 8-byte Reload
	.loc	15 730 17                       ## /usr/local/opt/llvm/bin/../include/c++/v1/ostream:730:17
	mov	qword ptr [rbp - 64], rax
	.loc	15 737 47 is_stmt 1             ## /usr/local/opt/llvm/bin/../include/c++/v1/ostream:737:47
	lea	rdi, [rbp - 64]
	call	__ZNKSt3__119ostreambuf_iteratorIcNS_11char_traitsIcEEE6failedEv
Ltmp42:
	.loc	15 730 17                       ## /usr/local/opt/llvm/bin/../include/c++/v1/ostream:730:17
	test	al, 1
	jne	LBB4_10
	jmp	LBB4_17
LBB4_10:
Ltmp43:
	.loc	15 738 17                       ## /usr/local/opt/llvm/bin/../include/c++/v1/ostream:738:17
	mov	rax, qword ptr [rbp - 8]
	mov	rcx, qword ptr [rax]
	mov	rcx, qword ptr [rcx - 24]
	add	rax, rcx
Ltmp29:
	mov	esi, 5
	.loc	15 738 22 is_stmt 0             ## /usr/local/opt/llvm/bin/../include/c++/v1/ostream:738:22
	mov	rdi, rax
	call	__ZNSt3__19basic_iosIcNS_11char_traitsIcEEE8setstateEj
Ltmp30:
	jmp	LBB4_11
LBB4_11:
	.loc	15 738 17                       ## /usr/local/opt/llvm/bin/../include/c++/v1/ostream:738:17
	jmp	LBB4_17
Ltmp44:
LBB4_12:
Ltmp20:
                                        ## kill: def $edx killed $edx killed $rdx
	.loc	15 748 1 is_stmt 1              ## /usr/local/opt/llvm/bin/../include/c++/v1/ostream:748:1
	mov	qword ptr [rbp - 48], rax
	mov	dword ptr [rbp - 52], edx
	jmp	LBB4_14
LBB4_13:
Ltmp31:
                                        ## kill: def $edx killed $edx killed $rdx
Ltmp45:
	.loc	15 748 1 is_stmt 0              ## /usr/local/opt/llvm/bin/../include/c++/v1/ostream:748:1
	mov	qword ptr [rbp - 48], rax
	mov	dword ptr [rbp - 52], edx
Ltmp46:
	.loc	15 741 5 is_stmt 1              ## /usr/local/opt/llvm/bin/../include/c++/v1/ostream:741:5
	lea	rdi, [rbp - 40]
	call	__ZNSt3__113basic_ostreamIcNS_11char_traitsIcEEE6sentryD1Ev
LBB4_14:
Ltmp47:
	.loc	15 741 5 is_stmt 0              ## /usr/local/opt/llvm/bin/../include/c++/v1/ostream:741:5
	mov	rdi, qword ptr [rbp - 48]
	call	___cxa_begin_catch
Ltmp48:
	.loc	15 744 9 is_stmt 1              ## /usr/local/opt/llvm/bin/../include/c++/v1/ostream:744:9
	mov	rcx, qword ptr [rbp - 8]
	mov	rdx, qword ptr [rcx]
	mov	rdx, qword ptr [rdx - 24]
	add	rcx, rdx
Ltmp32:
	.loc	15 744 14 is_stmt 0             ## /usr/local/opt/llvm/bin/../include/c++/v1/ostream:744:14
	mov	rdi, rcx
	mov	qword ptr [rbp - 152], rax      ## 8-byte Spill
	call	__ZNSt3__18ios_base33__set_badbit_and_consider_rethrowEv
Ltmp33:
	jmp	LBB4_15
LBB4_15:
	.loc	15 745 5 is_stmt 1              ## /usr/local/opt/llvm/bin/../include/c++/v1/ostream:745:5
	call	___cxa_end_catch
Ltmp49:
LBB4_16:
	.loc	15 747 12                       ## /usr/local/opt/llvm/bin/../include/c++/v1/ostream:747:12
	mov	rax, qword ptr [rbp - 8]
	.loc	15 747 5 is_stmt 0              ## /usr/local/opt/llvm/bin/../include/c++/v1/ostream:747:5
	add	rsp, 160
	pop	rbp
	ret
LBB4_17:
Ltmp50:
	.loc	15 739 9 is_stmt 1              ## /usr/local/opt/llvm/bin/../include/c++/v1/ostream:739:9
	jmp	LBB4_18
Ltmp51:
LBB4_18:
	.loc	15 741 5                        ## /usr/local/opt/llvm/bin/../include/c++/v1/ostream:741:5
	lea	rdi, [rbp - 40]
	call	__ZNSt3__113basic_ostreamIcNS_11char_traitsIcEEE6sentryD1Ev
Ltmp52:
	.loc	15 741 5 is_stmt 0              ## /usr/local/opt/llvm/bin/../include/c++/v1/ostream:741:5
	jmp	LBB4_16
Ltmp53:
LBB4_19:
Ltmp34:
                                        ## kill: def $edx killed $edx killed $rdx
	.loc	15 748 1 is_stmt 1              ## /usr/local/opt/llvm/bin/../include/c++/v1/ostream:748:1
	mov	qword ptr [rbp - 48], rax
	mov	dword ptr [rbp - 52], edx
Ltmp35:
	.loc	15 745 5                        ## /usr/local/opt/llvm/bin/../include/c++/v1/ostream:745:5
	call	___cxa_end_catch
Ltmp36:
	jmp	LBB4_20
LBB4_20:
	jmp	LBB4_21
LBB4_21:
	mov	rdi, qword ptr [rbp - 48]
	call	__Unwind_Resume
	ud2
LBB4_22:
Ltmp37:
	mov	rdi, rax
	mov	qword ptr [rbp - 160], rdx      ## 8-byte Spill
	call	___clang_call_terminate
Ltmp54:
Lfunc_end4:
	.cfi_endproc
	.section	__TEXT,__gcc_except_tab
	.p2align	2
GCC_except_table4:
Lexception0:
	.byte	255                             ## @LPStart Encoding = omit
	.byte	155                             ## @TType Encoding = indirect pcrel sdata4
	.uleb128 Lttbase0-Lttbaseref0
Lttbaseref0:
	.byte	1                               ## Call site Encoding = uleb128
	.uleb128 Lcst_end0-Lcst_begin0
Lcst_begin0:
	.uleb128 Ltmp18-Lfunc_begin4            ## >> Call Site 1 <<
	.uleb128 Ltmp19-Ltmp18                  ##   Call between Ltmp18 and Ltmp19
	.uleb128 Ltmp20-Lfunc_begin4            ##     jumps to Ltmp20
	.byte	1                               ##   On action: 1
	.uleb128 Ltmp21-Lfunc_begin4            ## >> Call Site 2 <<
	.uleb128 Ltmp30-Ltmp21                  ##   Call between Ltmp21 and Ltmp30
	.uleb128 Ltmp31-Lfunc_begin4            ##     jumps to Ltmp31
	.byte	1                               ##   On action: 1
	.uleb128 Ltmp30-Lfunc_begin4            ## >> Call Site 3 <<
	.uleb128 Ltmp32-Ltmp30                  ##   Call between Ltmp30 and Ltmp32
	.byte	0                               ##     has no landing pad
	.byte	0                               ##   On action: cleanup
	.uleb128 Ltmp32-Lfunc_begin4            ## >> Call Site 4 <<
	.uleb128 Ltmp33-Ltmp32                  ##   Call between Ltmp32 and Ltmp33
	.uleb128 Ltmp34-Lfunc_begin4            ##     jumps to Ltmp34
	.byte	0                               ##   On action: cleanup
	.uleb128 Ltmp33-Lfunc_begin4            ## >> Call Site 5 <<
	.uleb128 Ltmp35-Ltmp33                  ##   Call between Ltmp33 and Ltmp35
	.byte	0                               ##     has no landing pad
	.byte	0                               ##   On action: cleanup
	.uleb128 Ltmp35-Lfunc_begin4            ## >> Call Site 6 <<
	.uleb128 Ltmp36-Ltmp35                  ##   Call between Ltmp35 and Ltmp36
	.uleb128 Ltmp37-Lfunc_begin4            ##     jumps to Ltmp37
	.byte	1                               ##   On action: 1
	.uleb128 Ltmp36-Lfunc_begin4            ## >> Call Site 7 <<
	.uleb128 Lfunc_end4-Ltmp36              ##   Call between Ltmp36 and Lfunc_end4
	.byte	0                               ##     has no landing pad
	.byte	0                               ##   On action: cleanup
Lcst_end0:
	.byte	1                               ## >> Action Record 1 <<
                                        ##   Catch TypeInfo 1
	.byte	0                               ##   No further actions
	.p2align	2
                                        ## >> Catch TypeInfos <<
	.long	0                               ## TypeInfo 1
Lttbase0:
	.p2align	2
                                        ## -- End function
	.section	__TEXT,__text,regular,pure_instructions
	.globl	__ZNSt3__111char_traitsIcE6lengthEPKc ## -- Begin function _ZNSt3__111char_traitsIcE6lengthEPKc
	.weak_definition	__ZNSt3__111char_traitsIcE6lengthEPKc
	.p2align	4, 0x90
__ZNSt3__111char_traitsIcE6lengthEPKc:  ## @_ZNSt3__111char_traitsIcE6lengthEPKc
Lfunc_begin5:
	.loc	9 370 0                         ## /usr/local/opt/llvm/bin/../include/c++/v1/__string:370:0
	.cfi_startproc
## %bb.0:
	push	rbp
	.cfi_def_cfa_offset 16
	.cfi_offset rbp, -16
	mov	rbp, rsp
	.cfi_def_cfa_register rbp
	sub	rsp, 16
	mov	qword ptr [rbp - 8], rdi
Ltmp55:
	.loc	9 370 70 prologue_end           ## /usr/local/opt/llvm/bin/../include/c++/v1/__string:370:70
	mov	rdi, qword ptr [rbp - 8]
	.loc	9 370 53 is_stmt 0              ## /usr/local/opt/llvm/bin/../include/c++/v1/__string:370:53
	call	_strlen
	.loc	9 370 46                        ## /usr/local/opt/llvm/bin/../include/c++/v1/__string:370:46
	add	rsp, 16
	pop	rbp
	ret
Ltmp56:
Lfunc_end5:
	.cfi_endproc
                                        ## -- End function
	.private_extern	__ZNKSt3__113basic_ostreamIcNS_11char_traitsIcEEE6sentrycvbEv ## -- Begin function _ZNKSt3__113basic_ostreamIcNS_11char_traitsIcEEE6sentrycvbEv
	.globl	__ZNKSt3__113basic_ostreamIcNS_11char_traitsIcEEE6sentrycvbEv
	.weak_definition	__ZNKSt3__113basic_ostreamIcNS_11char_traitsIcEEE6sentrycvbEv
	.p2align	4, 0x90
__ZNKSt3__113basic_ostreamIcNS_11char_traitsIcEEE6sentrycvbEv: ## @_ZNKSt3__113basic_ostreamIcNS_11char_traitsIcEEE6sentrycvbEv
Lfunc_begin6:
	.loc	15 259 0 is_stmt 1              ## /usr/local/opt/llvm/bin/../include/c++/v1/ostream:259:0
	.cfi_startproc
## %bb.0:
	push	rbp
	.cfi_def_cfa_offset 16
	.cfi_offset rbp, -16
	mov	rbp, rsp
	.cfi_def_cfa_register rbp
	mov	qword ptr [rbp - 8], rdi
	mov	rax, qword ptr [rbp - 8]
Ltmp57:
	.loc	15 259 39 prologue_end          ## /usr/local/opt/llvm/bin/../include/c++/v1/ostream:259:39
	mov	cl, byte ptr [rax]
	.loc	15 259 32 is_stmt 0             ## /usr/local/opt/llvm/bin/../include/c++/v1/ostream:259:32
	and	cl, 1
	movzx	eax, cl
	pop	rbp
	ret
Ltmp58:
Lfunc_end6:
	.cfi_endproc
                                        ## -- End function
	.private_extern	__ZNSt3__116__pad_and_outputIcNS_11char_traitsIcEEEENS_19ostreambuf_iteratorIT_T0_EES6_PKS4_S8_S8_RNS_8ios_baseES4_ ## -- Begin function _ZNSt3__116__pad_and_outputIcNS_11char_traitsIcEEEENS_19ostreambuf_iteratorIT_T0_EES6_PKS4_S8_S8_RNS_8ios_baseES4_
	.globl	__ZNSt3__116__pad_and_outputIcNS_11char_traitsIcEEEENS_19ostreambuf_iteratorIT_T0_EES6_PKS4_S8_S8_RNS_8ios_baseES4_
	.weak_definition	__ZNSt3__116__pad_and_outputIcNS_11char_traitsIcEEEENS_19ostreambuf_iteratorIT_T0_EES6_PKS4_S8_S8_RNS_8ios_baseES4_
	.p2align	4, 0x90
__ZNSt3__116__pad_and_outputIcNS_11char_traitsIcEEEENS_19ostreambuf_iteratorIT_T0_EES6_PKS4_S8_S8_RNS_8ios_baseES4_: ## @_ZNSt3__116__pad_and_outputIcNS_11char_traitsIcEEEENS_19ostreambuf_iteratorIT_T0_EES6_PKS4_S8_S8_RNS_8ios_baseES4_
Lfunc_begin7:
	.file	64 "/usr/local/opt/llvm/bin/../include/c++/v1" "locale"
	.loc	64 1381 0 is_stmt 1             ## /usr/local/opt/llvm/bin/../include/c++/v1/locale:1381:0
	.cfi_startproc
	.cfi_personality 155, ___gxx_personality_v0
	.cfi_lsda 16, Lexception1
## %bb.0:
	push	rbp
	.cfi_def_cfa_offset 16
	.cfi_offset rbp, -16
	mov	rbp, rsp
	.cfi_def_cfa_register rbp
	sub	rsp, 144
                                        ## kill: def $r9b killed $r9b killed $r9d
	mov	qword ptr [rbp - 16], rdi
	mov	qword ptr [rbp - 24], rsi
	mov	qword ptr [rbp - 32], rdx
	mov	qword ptr [rbp - 40], rcx
	mov	qword ptr [rbp - 48], r8
	mov	byte ptr [rbp - 49], r9b
Ltmp62:
	.loc	64 1382 21 prologue_end         ## /usr/local/opt/llvm/bin/../include/c++/v1/locale:1382:21
	cmp	qword ptr [rbp - 16], 0
Ltmp63:
	.loc	64 1382 9 is_stmt 0             ## /usr/local/opt/llvm/bin/../include/c++/v1/locale:1382:9
	jne	LBB7_2
## %bb.1:
Ltmp64:
	.loc	64 1383 16 is_stmt 1            ## /usr/local/opt/llvm/bin/../include/c++/v1/locale:1383:16
	mov	rax, qword ptr [rbp - 16]
	mov	qword ptr [rbp - 8], rax
	.loc	64 1383 9 is_stmt 0             ## /usr/local/opt/llvm/bin/../include/c++/v1/locale:1383:9
	jmp	LBB7_22
Ltmp65:
LBB7_2:
	.loc	64 1384 23 is_stmt 1            ## /usr/local/opt/llvm/bin/../include/c++/v1/locale:1384:23
	mov	rax, qword ptr [rbp - 40]
	.loc	64 1384 30 is_stmt 0            ## /usr/local/opt/llvm/bin/../include/c++/v1/locale:1384:30
	mov	rcx, qword ptr [rbp - 24]
	.loc	64 1384 28                      ## /usr/local/opt/llvm/bin/../include/c++/v1/locale:1384:28
	sub	rax, rcx
	.loc	64 1384 16                      ## /usr/local/opt/llvm/bin/../include/c++/v1/locale:1384:16
	mov	qword ptr [rbp - 64], rax
	.loc	64 1385 23 is_stmt 1            ## /usr/local/opt/llvm/bin/../include/c++/v1/locale:1385:23
	mov	rdi, qword ptr [rbp - 48]
	.loc	64 1385 29 is_stmt 0            ## /usr/local/opt/llvm/bin/../include/c++/v1/locale:1385:29
	call	__ZNKSt3__18ios_base5widthEv
	.loc	64 1385 16                      ## /usr/local/opt/llvm/bin/../include/c++/v1/locale:1385:16
	mov	qword ptr [rbp - 72], rax
Ltmp66:
	.loc	64 1386 9 is_stmt 1             ## /usr/local/opt/llvm/bin/../include/c++/v1/locale:1386:9
	mov	rax, qword ptr [rbp - 72]
	.loc	64 1386 14 is_stmt 0            ## /usr/local/opt/llvm/bin/../include/c++/v1/locale:1386:14
	cmp	rax, qword ptr [rbp - 64]
Ltmp67:
	.loc	64 1386 9                       ## /usr/local/opt/llvm/bin/../include/c++/v1/locale:1386:9
	jle	LBB7_4
## %bb.3:
Ltmp68:
	.loc	64 1387 17 is_stmt 1            ## /usr/local/opt/llvm/bin/../include/c++/v1/locale:1387:17
	mov	rax, qword ptr [rbp - 64]
	.loc	64 1387 14 is_stmt 0            ## /usr/local/opt/llvm/bin/../include/c++/v1/locale:1387:14
	mov	rcx, qword ptr [rbp - 72]
	sub	rcx, rax
	mov	qword ptr [rbp - 72], rcx
	.loc	64 1387 9                       ## /usr/local/opt/llvm/bin/../include/c++/v1/locale:1387:9
	jmp	LBB7_5
LBB7_4:
	.loc	64 1389 14 is_stmt 1            ## /usr/local/opt/llvm/bin/../include/c++/v1/locale:1389:14
	mov	qword ptr [rbp - 72], 0
Ltmp69:
LBB7_5:
	.loc	64 1390 23                      ## /usr/local/opt/llvm/bin/../include/c++/v1/locale:1390:23
	mov	rax, qword ptr [rbp - 32]
	.loc	64 1390 30 is_stmt 0            ## /usr/local/opt/llvm/bin/../include/c++/v1/locale:1390:30
	mov	rcx, qword ptr [rbp - 24]
	.loc	64 1390 28                      ## /usr/local/opt/llvm/bin/../include/c++/v1/locale:1390:28
	sub	rax, rcx
	.loc	64 1390 16                      ## /usr/local/opt/llvm/bin/../include/c++/v1/locale:1390:16
	mov	qword ptr [rbp - 80], rax
Ltmp70:
	.loc	64 1391 14 is_stmt 1            ## /usr/local/opt/llvm/bin/../include/c++/v1/locale:1391:14
	cmp	qword ptr [rbp - 80], 0
Ltmp71:
	.loc	64 1391 9 is_stmt 0             ## /usr/local/opt/llvm/bin/../include/c++/v1/locale:1391:9
	jle	LBB7_9
## %bb.6:
Ltmp72:
	.loc	64 1393 17 is_stmt 1            ## /usr/local/opt/llvm/bin/../include/c++/v1/locale:1393:17
	mov	rdi, qword ptr [rbp - 16]
	.loc	64 1393 32 is_stmt 0            ## /usr/local/opt/llvm/bin/../include/c++/v1/locale:1393:32
	mov	rsi, qword ptr [rbp - 24]
	.loc	64 1393 38                      ## /usr/local/opt/llvm/bin/../include/c++/v1/locale:1393:38
	mov	rdx, qword ptr [rbp - 80]
	.loc	64 1393 26                      ## /usr/local/opt/llvm/bin/../include/c++/v1/locale:1393:26
	call	__ZNSt3__115basic_streambufIcNS_11char_traitsIcEEE5sputnEPKcl
	.loc	64 1393 44                      ## /usr/local/opt/llvm/bin/../include/c++/v1/locale:1393:44
	cmp	rax, qword ptr [rbp - 80]
Ltmp73:
	.loc	64 1393 13                      ## /usr/local/opt/llvm/bin/../include/c++/v1/locale:1393:13
	je	LBB7_8
## %bb.7:
Ltmp74:
	.loc	64 1395 25 is_stmt 1            ## /usr/local/opt/llvm/bin/../include/c++/v1/locale:1395:25
	mov	qword ptr [rbp - 16], 0
	.loc	64 1396 20                      ## /usr/local/opt/llvm/bin/../include/c++/v1/locale:1396:20
	mov	rax, qword ptr [rbp - 16]
	mov	qword ptr [rbp - 8], rax
	.loc	64 1396 13 is_stmt 0            ## /usr/local/opt/llvm/bin/../include/c++/v1/locale:1396:13
	jmp	LBB7_22
Ltmp75:
LBB7_8:
	.loc	64 1398 5 is_stmt 1             ## /usr/local/opt/llvm/bin/../include/c++/v1/locale:1398:5
	jmp	LBB7_9
Ltmp76:
LBB7_9:
	.loc	64 1399 14                      ## /usr/local/opt/llvm/bin/../include/c++/v1/locale:1399:14
	cmp	qword ptr [rbp - 72], 0
Ltmp77:
	.loc	64 1399 9 is_stmt 0             ## /usr/local/opt/llvm/bin/../include/c++/v1/locale:1399:9
	jle	LBB7_17
## %bb.10:
Ltmp78:
	.loc	64 1401 44 is_stmt 1            ## /usr/local/opt/llvm/bin/../include/c++/v1/locale:1401:44
	mov	rsi, qword ptr [rbp - 72]
	.loc	64 1401 50 is_stmt 0            ## /usr/local/opt/llvm/bin/../include/c++/v1/locale:1401:50
	movsx	edx, byte ptr [rbp - 49]
	lea	rax, [rbp - 104]
	.loc	64 1401 39                      ## /usr/local/opt/llvm/bin/../include/c++/v1/locale:1401:39
	mov	rdi, rax
	mov	qword ptr [rbp - 128], rax      ## 8-byte Spill
	call	__ZNSt3__112basic_stringIcNS_11char_traitsIcEENS_9allocatorIcEEEC1Emc
Ltmp79:
	.loc	64 1402 17 is_stmt 1            ## /usr/local/opt/llvm/bin/../include/c++/v1/locale:1402:17
	mov	rdi, qword ptr [rbp - 16]
	mov	rax, qword ptr [rbp - 128]      ## 8-byte Reload
	mov	qword ptr [rbp - 136], rdi      ## 8-byte Spill
	.loc	64 1402 37 is_stmt 0            ## /usr/local/opt/llvm/bin/../include/c++/v1/locale:1402:37
	mov	rdi, rax
	call	__ZNKSt3__112basic_stringIcNS_11char_traitsIcEENS_9allocatorIcEEE4dataEv
	.loc	64 1402 45                      ## /usr/local/opt/llvm/bin/../include/c++/v1/locale:1402:45
	mov	rdx, qword ptr [rbp - 72]
Ltmp59:
	mov	rdi, qword ptr [rbp - 136]      ## 8-byte Reload
	.loc	64 1402 26                      ## /usr/local/opt/llvm/bin/../include/c++/v1/locale:1402:26
	mov	rsi, rax
	call	__ZNSt3__115basic_streambufIcNS_11char_traitsIcEEE5sputnEPKcl
Ltmp60:
	mov	qword ptr [rbp - 144], rax      ## 8-byte Spill
	jmp	LBB7_11
LBB7_11:
	.loc	64 0 26                         ## /usr/local/opt/llvm/bin/../include/c++/v1/locale:0:26
	mov	rax, qword ptr [rbp - 144]      ## 8-byte Reload
	.loc	64 1402 51                      ## /usr/local/opt/llvm/bin/../include/c++/v1/locale:1402:51
	cmp	rax, qword ptr [rbp - 72]
Ltmp80:
	.loc	64 1402 13                      ## /usr/local/opt/llvm/bin/../include/c++/v1/locale:1402:13
	je	LBB7_14
## %bb.12:
Ltmp81:
	.loc	64 1404 25 is_stmt 1            ## /usr/local/opt/llvm/bin/../include/c++/v1/locale:1404:25
	mov	qword ptr [rbp - 16], 0
	.loc	64 1405 20                      ## /usr/local/opt/llvm/bin/../include/c++/v1/locale:1405:20
	mov	rax, qword ptr [rbp - 16]
	mov	qword ptr [rbp - 8], rax
	mov	dword ptr [rbp - 120], 1
	.loc	64 1405 13 is_stmt 0            ## /usr/local/opt/llvm/bin/../include/c++/v1/locale:1405:13
	jmp	LBB7_15
Ltmp82:
LBB7_13:
Ltmp61:
                                        ## kill: def $edx killed $edx killed $rdx
	.loc	64 1419 1 is_stmt 1             ## /usr/local/opt/llvm/bin/../include/c++/v1/locale:1419:1
	mov	qword ptr [rbp - 112], rax
	mov	dword ptr [rbp - 116], edx
Ltmp83:
	.loc	64 1407 5                       ## /usr/local/opt/llvm/bin/../include/c++/v1/locale:1407:5
	lea	rdi, [rbp - 104]
	call	__ZNSt3__112basic_stringIcNS_11char_traitsIcEENS_9allocatorIcEEED1Ev
	jmp	LBB7_23
LBB7_14:
	mov	dword ptr [rbp - 120], 0
LBB7_15:
	.loc	64 0 5 is_stmt 0                ## /usr/local/opt/llvm/bin/../include/c++/v1/locale:0:5
	lea	rdi, [rbp - 104]
	.loc	64 1407 5                       ## /usr/local/opt/llvm/bin/../include/c++/v1/locale:1407:5
	call	__ZNSt3__112basic_stringIcNS_11char_traitsIcEENS_9allocatorIcEEED1Ev
	mov	eax, dword ptr [rbp - 120]
	test	eax, eax
	je	LBB7_16
	jmp	LBB7_25
LBB7_25:
	.loc	64 0 5                          ## /usr/local/opt/llvm/bin/../include/c++/v1/locale:0:5
	jmp	LBB7_22
LBB7_16:
Ltmp84:
	.loc	64 1407 5                       ## /usr/local/opt/llvm/bin/../include/c++/v1/locale:1407:5
	jmp	LBB7_17
Ltmp85:
LBB7_17:
	.loc	64 1408 12 is_stmt 1            ## /usr/local/opt/llvm/bin/../include/c++/v1/locale:1408:12
	mov	rax, qword ptr [rbp - 40]
	.loc	64 1408 19 is_stmt 0            ## /usr/local/opt/llvm/bin/../include/c++/v1/locale:1408:19
	mov	rcx, qword ptr [rbp - 32]
	.loc	64 1408 17                      ## /usr/local/opt/llvm/bin/../include/c++/v1/locale:1408:17
	sub	rax, rcx
	.loc	64 1408 10                      ## /usr/local/opt/llvm/bin/../include/c++/v1/locale:1408:10
	mov	qword ptr [rbp - 80], rax
Ltmp86:
	.loc	64 1409 14 is_stmt 1            ## /usr/local/opt/llvm/bin/../include/c++/v1/locale:1409:14
	cmp	qword ptr [rbp - 80], 0
Ltmp87:
	.loc	64 1409 9 is_stmt 0             ## /usr/local/opt/llvm/bin/../include/c++/v1/locale:1409:9
	jle	LBB7_21
## %bb.18:
Ltmp88:
	.loc	64 1411 17 is_stmt 1            ## /usr/local/opt/llvm/bin/../include/c++/v1/locale:1411:17
	mov	rdi, qword ptr [rbp - 16]
	.loc	64 1411 32 is_stmt 0            ## /usr/local/opt/llvm/bin/../include/c++/v1/locale:1411:32
	mov	rsi, qword ptr [rbp - 32]
	.loc	64 1411 38                      ## /usr/local/opt/llvm/bin/../include/c++/v1/locale:1411:38
	mov	rdx, qword ptr [rbp - 80]
	.loc	64 1411 26                      ## /usr/local/opt/llvm/bin/../include/c++/v1/locale:1411:26
	call	__ZNSt3__115basic_streambufIcNS_11char_traitsIcEEE5sputnEPKcl
	.loc	64 1411 44                      ## /usr/local/opt/llvm/bin/../include/c++/v1/locale:1411:44
	cmp	rax, qword ptr [rbp - 80]
Ltmp89:
	.loc	64 1411 13                      ## /usr/local/opt/llvm/bin/../include/c++/v1/locale:1411:13
	je	LBB7_20
## %bb.19:
Ltmp90:
	.loc	64 1413 25 is_stmt 1            ## /usr/local/opt/llvm/bin/../include/c++/v1/locale:1413:25
	mov	qword ptr [rbp - 16], 0
	.loc	64 1414 20                      ## /usr/local/opt/llvm/bin/../include/c++/v1/locale:1414:20
	mov	rax, qword ptr [rbp - 16]
	mov	qword ptr [rbp - 8], rax
	.loc	64 1414 13 is_stmt 0            ## /usr/local/opt/llvm/bin/../include/c++/v1/locale:1414:13
	jmp	LBB7_22
Ltmp91:
LBB7_20:
	.loc	64 1416 5 is_stmt 1             ## /usr/local/opt/llvm/bin/../include/c++/v1/locale:1416:5
	jmp	LBB7_21
Ltmp92:
LBB7_21:
	.loc	64 0 5 is_stmt 0                ## /usr/local/opt/llvm/bin/../include/c++/v1/locale:0:5
	xor	eax, eax
	mov	esi, eax
	.loc	64 1417 5 is_stmt 1             ## /usr/local/opt/llvm/bin/../include/c++/v1/locale:1417:5
	mov	rdi, qword ptr [rbp - 48]
	.loc	64 1417 11 is_stmt 0            ## /usr/local/opt/llvm/bin/../include/c++/v1/locale:1417:11
	call	__ZNSt3__18ios_base5widthEl
	.loc	64 1418 12 is_stmt 1            ## /usr/local/opt/llvm/bin/../include/c++/v1/locale:1418:12
	mov	rcx, qword ptr [rbp - 16]
	mov	qword ptr [rbp - 8], rcx
LBB7_22:
	.loc	64 1419 1                       ## /usr/local/opt/llvm/bin/../include/c++/v1/locale:1419:1
	mov	rax, qword ptr [rbp - 8]
	add	rsp, 144
	pop	rbp
	ret
LBB7_23:
Ltmp93:
	.loc	64 1407 5                       ## /usr/local/opt/llvm/bin/../include/c++/v1/locale:1407:5
	mov	rdi, qword ptr [rbp - 112]
	call	__Unwind_Resume
	ud2
Ltmp94:
## %bb.24:
	.loc	64 0 5 is_stmt 0                ## /usr/local/opt/llvm/bin/../include/c++/v1/locale:0:5
	ud2
Lfunc_end7:
	.cfi_endproc
	.section	__TEXT,__gcc_except_tab
	.p2align	2
GCC_except_table7:
Lexception1:
	.byte	255                             ## @LPStart Encoding = omit
	.byte	255                             ## @TType Encoding = omit
	.byte	1                               ## Call site Encoding = uleb128
	.uleb128 Lcst_end1-Lcst_begin1
Lcst_begin1:
	.uleb128 Lfunc_begin7-Lfunc_begin7      ## >> Call Site 1 <<
	.uleb128 Ltmp59-Lfunc_begin7            ##   Call between Lfunc_begin7 and Ltmp59
	.byte	0                               ##     has no landing pad
	.byte	0                               ##   On action: cleanup
	.uleb128 Ltmp59-Lfunc_begin7            ## >> Call Site 2 <<
	.uleb128 Ltmp60-Ltmp59                  ##   Call between Ltmp59 and Ltmp60
	.uleb128 Ltmp61-Lfunc_begin7            ##     jumps to Ltmp61
	.byte	0                               ##   On action: cleanup
	.uleb128 Ltmp60-Lfunc_begin7            ## >> Call Site 3 <<
	.uleb128 Lfunc_end7-Ltmp60              ##   Call between Ltmp60 and Lfunc_end7
	.byte	0                               ##     has no landing pad
	.byte	0                               ##   On action: cleanup
Lcst_end1:
	.p2align	2
                                        ## -- End function
	.section	__TEXT,__text,regular,pure_instructions
	.private_extern	__ZNSt3__119ostreambuf_iteratorIcNS_11char_traitsIcEEEC1ERNS_13basic_ostreamIcS2_EE ## -- Begin function _ZNSt3__119ostreambuf_iteratorIcNS_11char_traitsIcEEEC1ERNS_13basic_ostreamIcS2_EE
	.globl	__ZNSt3__119ostreambuf_iteratorIcNS_11char_traitsIcEEEC1ERNS_13basic_ostreamIcS2_EE
	.weak_def_can_be_hidden	__ZNSt3__119ostreambuf_iteratorIcNS_11char_traitsIcEEEC1ERNS_13basic_ostreamIcS2_EE
	.p2align	4, 0x90
__ZNSt3__119ostreambuf_iteratorIcNS_11char_traitsIcEEEC1ERNS_13basic_ostreamIcS2_EE: ## @_ZNSt3__119ostreambuf_iteratorIcNS_11char_traitsIcEEEC1ERNS_13basic_ostreamIcS2_EE
Lfunc_begin8:
	.loc	13 1162 0 is_stmt 1             ## /usr/local/opt/llvm/bin/../include/c++/v1/iterator:1162:0
	.cfi_startproc
## %bb.0:
	push	rbp
	.cfi_def_cfa_offset 16
	.cfi_offset rbp, -16
	mov	rbp, rsp
	.cfi_def_cfa_register rbp
	sub	rsp, 16
	mov	qword ptr [rbp - 8], rdi
	mov	qword ptr [rbp - 16], rsi
	mov	rdi, qword ptr [rbp - 8]
Ltmp95:
	.loc	13 1162 32 prologue_end         ## /usr/local/opt/llvm/bin/../include/c++/v1/iterator:1162:32
	mov	rsi, qword ptr [rbp - 16]
	call	__ZNSt3__119ostreambuf_iteratorIcNS_11char_traitsIcEEEC2ERNS_13basic_ostreamIcS2_EE
	.loc	13 1162 33 is_stmt 0            ## /usr/local/opt/llvm/bin/../include/c++/v1/iterator:1162:33
	add	rsp, 16
	pop	rbp
	ret
Ltmp96:
Lfunc_end8:
	.cfi_endproc
                                        ## -- End function
	.private_extern	__ZNKSt3__18ios_base5flagsEv ## -- Begin function _ZNKSt3__18ios_base5flagsEv
	.globl	__ZNKSt3__18ios_base5flagsEv
	.weak_definition	__ZNKSt3__18ios_base5flagsEv
	.p2align	4, 0x90
__ZNKSt3__18ios_base5flagsEv:           ## @_ZNKSt3__18ios_base5flagsEv
Lfunc_begin9:
	.loc	1 460 0 is_stmt 1               ## /usr/local/opt/llvm/bin/../include/c++/v1/ios:460:0
	.cfi_startproc
## %bb.0:
	push	rbp
	.cfi_def_cfa_offset 16
	.cfi_offset rbp, -16
	mov	rbp, rsp
	.cfi_def_cfa_register rbp
	mov	qword ptr [rbp - 8], rdi
	mov	rax, qword ptr [rbp - 8]
Ltmp97:
	.loc	1 461 12 prologue_end           ## /usr/local/opt/llvm/bin/../include/c++/v1/ios:461:12
	mov	eax, dword ptr [rax + 8]
	.loc	1 461 5 is_stmt 0               ## /usr/local/opt/llvm/bin/../include/c++/v1/ios:461:5
	pop	rbp
	ret
Ltmp98:
Lfunc_end9:
	.cfi_endproc
                                        ## -- End function
	.private_extern	__ZNKSt3__19basic_iosIcNS_11char_traitsIcEEE4fillEv ## -- Begin function _ZNKSt3__19basic_iosIcNS_11char_traitsIcEEE4fillEv
	.globl	__ZNKSt3__19basic_iosIcNS_11char_traitsIcEEE4fillEv
	.weak_definition	__ZNKSt3__19basic_iosIcNS_11char_traitsIcEEE4fillEv
	.p2align	4, 0x90
__ZNKSt3__19basic_iosIcNS_11char_traitsIcEEE4fillEv: ## @_ZNKSt3__19basic_iosIcNS_11char_traitsIcEEE4fillEv
Lfunc_begin10:
	.loc	1 785 0 is_stmt 1               ## /usr/local/opt/llvm/bin/../include/c++/v1/ios:785:0
	.cfi_startproc
## %bb.0:
	push	rbp
	.cfi_def_cfa_offset 16
	.cfi_offset rbp, -16
	mov	rbp, rsp
	.cfi_def_cfa_register rbp
	sub	rsp, 16
	mov	qword ptr [rbp - 8], rdi
	mov	rax, qword ptr [rbp - 8]
	mov	qword ptr [rbp - 16], rax       ## 8-byte Spill
Ltmp99:
	.loc	1 786 34 prologue_end           ## /usr/local/opt/llvm/bin/../include/c++/v1/ios:786:34
	call	__ZNSt3__111char_traitsIcE3eofEv
	mov	rcx, qword ptr [rbp - 16]       ## 8-byte Reload
	.loc	1 786 54 is_stmt 0              ## /usr/local/opt/llvm/bin/../include/c++/v1/ios:786:54
	mov	esi, dword ptr [rcx + 144]
	.loc	1 786 9                         ## /usr/local/opt/llvm/bin/../include/c++/v1/ios:786:9
	mov	edi, eax
	call	__ZNSt3__111char_traitsIcE11eq_int_typeEii
Ltmp100:
	.loc	1 786 9                         ## /usr/local/opt/llvm/bin/../include/c++/v1/ios:786:9
	test	al, 1
	jne	LBB10_1
	jmp	LBB10_2
LBB10_1:
	.loc	1 0 9                           ## /usr/local/opt/llvm/bin/../include/c++/v1/ios:0:9
	mov	rdi, qword ptr [rbp - 16]       ## 8-byte Reload
Ltmp101:
	.loc	1 787 19 is_stmt 1              ## /usr/local/opt/llvm/bin/../include/c++/v1/ios:787:19
	mov	esi, 32
	call	__ZNKSt3__19basic_iosIcNS_11char_traitsIcEEE5widenEc
	movsx	ecx, al
	mov	rdx, qword ptr [rbp - 16]       ## 8-byte Reload
	.loc	1 787 17 is_stmt 0              ## /usr/local/opt/llvm/bin/../include/c++/v1/ios:787:17
	mov	dword ptr [rdx + 144], ecx
Ltmp102:
LBB10_2:
	.loc	1 0 17                          ## /usr/local/opt/llvm/bin/../include/c++/v1/ios:0:17
	mov	rax, qword ptr [rbp - 16]       ## 8-byte Reload
	.loc	1 788 12 is_stmt 1              ## /usr/local/opt/llvm/bin/../include/c++/v1/ios:788:12
	mov	ecx, dword ptr [rax + 144]
                                        ## kill: def $cl killed $cl killed $ecx
	.loc	1 788 5 is_stmt 0               ## /usr/local/opt/llvm/bin/../include/c++/v1/ios:788:5
	movsx	edx, cl
	mov	eax, edx
	add	rsp, 16
	pop	rbp
	ret
Ltmp103:
Lfunc_end10:
	.cfi_endproc
                                        ## -- End function
	.private_extern	__ZNKSt3__119ostreambuf_iteratorIcNS_11char_traitsIcEEE6failedEv ## -- Begin function _ZNKSt3__119ostreambuf_iteratorIcNS_11char_traitsIcEEE6failedEv
	.globl	__ZNKSt3__119ostreambuf_iteratorIcNS_11char_traitsIcEEE6failedEv
	.weak_definition	__ZNKSt3__119ostreambuf_iteratorIcNS_11char_traitsIcEEE6failedEv
	.p2align	4, 0x90
__ZNKSt3__119ostreambuf_iteratorIcNS_11char_traitsIcEEE6failedEv: ## @_ZNKSt3__119ostreambuf_iteratorIcNS_11char_traitsIcEEE6failedEv
Lfunc_begin11:
	.loc	13 1174 0 is_stmt 1             ## /usr/local/opt/llvm/bin/../include/c++/v1/iterator:1174:0
	.cfi_startproc
## %bb.0:
	push	rbp
	.cfi_def_cfa_offset 16
	.cfi_offset rbp, -16
	mov	rbp, rsp
	.cfi_def_cfa_register rbp
	mov	qword ptr [rbp - 8], rdi
	mov	rax, qword ptr [rbp - 8]
Ltmp104:
	.loc	13 1174 77 prologue_end         ## /usr/local/opt/llvm/bin/../include/c++/v1/iterator:1174:77
	cmp	qword ptr [rax], 0
	sete	cl
	.loc	13 1174 62 is_stmt 0            ## /usr/local/opt/llvm/bin/../include/c++/v1/iterator:1174:62
	and	cl, 1
	movzx	eax, cl
	pop	rbp
	ret
Ltmp105:
Lfunc_end11:
	.cfi_endproc
                                        ## -- End function
	.private_extern	__ZNSt3__19basic_iosIcNS_11char_traitsIcEEE8setstateEj ## -- Begin function _ZNSt3__19basic_iosIcNS_11char_traitsIcEEE8setstateEj
	.globl	__ZNSt3__19basic_iosIcNS_11char_traitsIcEEE8setstateEj
	.weak_definition	__ZNSt3__19basic_iosIcNS_11char_traitsIcEEE8setstateEj
	.p2align	4, 0x90
__ZNSt3__19basic_iosIcNS_11char_traitsIcEEE8setstateEj: ## @_ZNSt3__19basic_iosIcNS_11char_traitsIcEEE8setstateEj
Lfunc_begin12:
	.loc	1 633 0 is_stmt 1               ## /usr/local/opt/llvm/bin/../include/c++/v1/ios:633:0
	.cfi_startproc
## %bb.0:
	push	rbp
	.cfi_def_cfa_offset 16
	.cfi_offset rbp, -16
	mov	rbp, rsp
	.cfi_def_cfa_register rbp
	sub	rsp, 16
	mov	qword ptr [rbp - 8], rdi
	mov	dword ptr [rbp - 12], esi
	mov	rax, qword ptr [rbp - 8]
Ltmp106:
	.loc	1 633 82 prologue_end           ## /usr/local/opt/llvm/bin/../include/c++/v1/ios:633:82
	mov	esi, dword ptr [rbp - 12]
	.loc	1 633 73 is_stmt 0              ## /usr/local/opt/llvm/bin/../include/c++/v1/ios:633:73
	mov	rdi, rax
	call	__ZNSt3__18ios_base8setstateEj
	.loc	1 633 91                        ## /usr/local/opt/llvm/bin/../include/c++/v1/ios:633:91
	add	rsp, 16
	pop	rbp
	ret
Ltmp107:
Lfunc_end12:
	.cfi_endproc
                                        ## -- End function
	.private_extern	___clang_call_terminate ## -- Begin function __clang_call_terminate
	.globl	___clang_call_terminate
	.weak_definition	___clang_call_terminate
	.p2align	4, 0x90
___clang_call_terminate:                ## @__clang_call_terminate
Lfunc_begin13:
	.cfi_startproc
## %bb.0:
	push	rax
	.cfi_def_cfa_offset 16
	call	___cxa_begin_catch
	mov	qword ptr [rsp], rax            ## 8-byte Spill
	call	__ZSt9terminatev
Lfunc_end13:
	.cfi_endproc
                                        ## -- End function
	.private_extern	__ZNKSt3__18ios_base5widthEv ## -- Begin function _ZNKSt3__18ios_base5widthEv
	.globl	__ZNKSt3__18ios_base5widthEv
	.weak_definition	__ZNKSt3__18ios_base5widthEv
	.p2align	4, 0x90
__ZNKSt3__18ios_base5widthEv:           ## @_ZNKSt3__18ios_base5widthEv
Lfunc_begin14:
	.loc	1 522 0 is_stmt 1               ## /usr/local/opt/llvm/bin/../include/c++/v1/ios:522:0
	.cfi_startproc
## %bb.0:
	push	rbp
	.cfi_def_cfa_offset 16
	.cfi_offset rbp, -16
	mov	rbp, rsp
	.cfi_def_cfa_register rbp
	mov	qword ptr [rbp - 8], rdi
	mov	rax, qword ptr [rbp - 8]
Ltmp108:
	.loc	1 523 12 prologue_end           ## /usr/local/opt/llvm/bin/../include/c++/v1/ios:523:12
	mov	rax, qword ptr [rax + 24]
	.loc	1 523 5 is_stmt 0               ## /usr/local/opt/llvm/bin/../include/c++/v1/ios:523:5
	pop	rbp
	ret
Ltmp109:
Lfunc_end14:
	.cfi_endproc
                                        ## -- End function
	.private_extern	__ZNSt3__115basic_streambufIcNS_11char_traitsIcEEE5sputnEPKcl ## -- Begin function _ZNSt3__115basic_streambufIcNS_11char_traitsIcEEE5sputnEPKcl
	.globl	__ZNSt3__115basic_streambufIcNS_11char_traitsIcEEE5sputnEPKcl
	.weak_definition	__ZNSt3__115basic_streambufIcNS_11char_traitsIcEEE5sputnEPKcl
	.p2align	4, 0x90
__ZNSt3__115basic_streambufIcNS_11char_traitsIcEEE5sputnEPKcl: ## @_ZNSt3__115basic_streambufIcNS_11char_traitsIcEEE5sputnEPKcl
Lfunc_begin15:
	.loc	14 229 0 is_stmt 1              ## /usr/local/opt/llvm/bin/../include/c++/v1/streambuf:229:0
	.cfi_startproc
## %bb.0:
	push	rbp
	.cfi_def_cfa_offset 16
	.cfi_offset rbp, -16
	mov	rbp, rsp
	.cfi_def_cfa_register rbp
	sub	rsp, 32
	mov	qword ptr [rbp - 8], rdi
	mov	qword ptr [rbp - 16], rsi
	mov	qword ptr [rbp - 24], rdx
	mov	rax, qword ptr [rbp - 8]
Ltmp110:
	.loc	14 229 21 prologue_end          ## /usr/local/opt/llvm/bin/../include/c++/v1/streambuf:229:21
	mov	rsi, qword ptr [rbp - 16]
	.loc	14 229 26 is_stmt 0             ## /usr/local/opt/llvm/bin/../include/c++/v1/streambuf:229:26
	mov	rdx, qword ptr [rbp - 24]
	.loc	14 229 14                       ## /usr/local/opt/llvm/bin/../include/c++/v1/streambuf:229:14
	mov	rcx, qword ptr [rax]
	mov	rdi, rax
	call	qword ptr [rcx + 96]
	.loc	14 229 7                        ## /usr/local/opt/llvm/bin/../include/c++/v1/streambuf:229:7
	add	rsp, 32
	pop	rbp
	ret
Ltmp111:
Lfunc_end15:
	.cfi_endproc
                                        ## -- End function
	.private_extern	__ZNSt3__112basic_stringIcNS_11char_traitsIcEENS_9allocatorIcEEEC1Emc ## -- Begin function _ZNSt3__112basic_stringIcNS_11char_traitsIcEENS_9allocatorIcEEEC1Emc
	.globl	__ZNSt3__112basic_stringIcNS_11char_traitsIcEENS_9allocatorIcEEEC1Emc
	.weak_def_can_be_hidden	__ZNSt3__112basic_stringIcNS_11char_traitsIcEENS_9allocatorIcEEEC1Emc
	.p2align	4, 0x90
__ZNSt3__112basic_stringIcNS_11char_traitsIcEENS_9allocatorIcEEEC1Emc: ## @_ZNSt3__112basic_stringIcNS_11char_traitsIcEENS_9allocatorIcEEEC1Emc
Lfunc_begin16:
	.loc	4 1995 0 is_stmt 1              ## /usr/local/opt/llvm/bin/../include/c++/v1/string:1995:0
	.cfi_startproc
## %bb.0:
	push	rbp
	.cfi_def_cfa_offset 16
	.cfi_offset rbp, -16
	mov	rbp, rsp
	.cfi_def_cfa_register rbp
	sub	rsp, 32
                                        ## kill: def $dl killed $dl killed $edx
	mov	qword ptr [rbp - 8], rdi
	mov	qword ptr [rbp - 16], rsi
	mov	byte ptr [rbp - 17], dl
	mov	rdi, qword ptr [rbp - 8]
Ltmp112:
	.loc	4 1995 1 prologue_end           ## /usr/local/opt/llvm/bin/../include/c++/v1/string:1995:1
	mov	rsi, qword ptr [rbp - 16]
	movsx	edx, byte ptr [rbp - 17]
	call	__ZNSt3__112basic_stringIcNS_11char_traitsIcEENS_9allocatorIcEEEC2Emc
	.loc	4 2000 1                        ## /usr/local/opt/llvm/bin/../include/c++/v1/string:2000:1
	add	rsp, 32
	pop	rbp
	ret
Ltmp113:
Lfunc_end16:
	.cfi_endproc
                                        ## -- End function
	.private_extern	__ZNKSt3__112basic_stringIcNS_11char_traitsIcEENS_9allocatorIcEEE4dataEv ## -- Begin function _ZNKSt3__112basic_stringIcNS_11char_traitsIcEENS_9allocatorIcEEE4dataEv
	.globl	__ZNKSt3__112basic_stringIcNS_11char_traitsIcEENS_9allocatorIcEEE4dataEv
	.weak_definition	__ZNKSt3__112basic_stringIcNS_11char_traitsIcEENS_9allocatorIcEEE4dataEv
	.p2align	4, 0x90
__ZNKSt3__112basic_stringIcNS_11char_traitsIcEENS_9allocatorIcEEE4dataEv: ## @_ZNKSt3__112basic_stringIcNS_11char_traitsIcEENS_9allocatorIcEEE4dataEv
Lfunc_begin17:
	.loc	4 1245 0                        ## /usr/local/opt/llvm/bin/../include/c++/v1/string:1245:0
	.cfi_startproc
## %bb.0:
	push	rbp
	.cfi_def_cfa_offset 16
	.cfi_offset rbp, -16
	mov	rbp, rsp
	.cfi_def_cfa_register rbp
	sub	rsp, 16
	mov	qword ptr [rbp - 8], rdi
	mov	rdi, qword ptr [rbp - 8]
Ltmp114:
	.loc	4 1245 75 prologue_end          ## /usr/local/opt/llvm/bin/../include/c++/v1/string:1245:75
	call	__ZNKSt3__112basic_stringIcNS_11char_traitsIcEENS_9allocatorIcEEE13__get_pointerEv
	.loc	4 1245 55 is_stmt 0             ## /usr/local/opt/llvm/bin/../include/c++/v1/string:1245:55
	mov	rdi, rax
	call	__ZNSt3__112__to_addressIKcEEPT_S3_
	.loc	4 1245 48                       ## /usr/local/opt/llvm/bin/../include/c++/v1/string:1245:48
	add	rsp, 16
	pop	rbp
	ret
Ltmp115:
Lfunc_end17:
	.cfi_endproc
                                        ## -- End function
	.private_extern	__ZNSt3__18ios_base5widthEl ## -- Begin function _ZNSt3__18ios_base5widthEl
	.globl	__ZNSt3__18ios_base5widthEl
	.weak_definition	__ZNSt3__18ios_base5widthEl
	.p2align	4, 0x90
__ZNSt3__18ios_base5widthEl:            ## @_ZNSt3__18ios_base5widthEl
Lfunc_begin18:
	.loc	1 529 0 is_stmt 1               ## /usr/local/opt/llvm/bin/../include/c++/v1/ios:529:0
	.cfi_startproc
## %bb.0:
	push	rbp
	.cfi_def_cfa_offset 16
	.cfi_offset rbp, -16
	mov	rbp, rsp
	.cfi_def_cfa_register rbp
	mov	qword ptr [rbp - 8], rdi
	mov	qword ptr [rbp - 16], rsi
	mov	rax, qword ptr [rbp - 8]
Ltmp116:
	.loc	1 530 22 prologue_end           ## /usr/local/opt/llvm/bin/../include/c++/v1/ios:530:22
	mov	rcx, qword ptr [rax + 24]
	.loc	1 530 16 is_stmt 0              ## /usr/local/opt/llvm/bin/../include/c++/v1/ios:530:16
	mov	qword ptr [rbp - 24], rcx
	.loc	1 531 16 is_stmt 1              ## /usr/local/opt/llvm/bin/../include/c++/v1/ios:531:16
	mov	rcx, qword ptr [rbp - 16]
	.loc	1 531 14 is_stmt 0              ## /usr/local/opt/llvm/bin/../include/c++/v1/ios:531:14
	mov	qword ptr [rax + 24], rcx
	.loc	1 532 12 is_stmt 1              ## /usr/local/opt/llvm/bin/../include/c++/v1/ios:532:12
	mov	rax, qword ptr [rbp - 24]
	.loc	1 532 5 is_stmt 0               ## /usr/local/opt/llvm/bin/../include/c++/v1/ios:532:5
	pop	rbp
	ret
Ltmp117:
Lfunc_end18:
	.cfi_endproc
                                        ## -- End function
	.private_extern	__ZNSt3__112basic_stringIcNS_11char_traitsIcEENS_9allocatorIcEEEC2Emc ## -- Begin function _ZNSt3__112basic_stringIcNS_11char_traitsIcEENS_9allocatorIcEEEC2Emc
	.globl	__ZNSt3__112basic_stringIcNS_11char_traitsIcEENS_9allocatorIcEEEC2Emc
	.weak_def_can_be_hidden	__ZNSt3__112basic_stringIcNS_11char_traitsIcEENS_9allocatorIcEEEC2Emc
	.p2align	4, 0x90
__ZNSt3__112basic_stringIcNS_11char_traitsIcEENS_9allocatorIcEEEC2Emc: ## @_ZNSt3__112basic_stringIcNS_11char_traitsIcEENS_9allocatorIcEEEC2Emc
Lfunc_begin19:
	.loc	4 1995 0 is_stmt 1              ## /usr/local/opt/llvm/bin/../include/c++/v1/string:1995:0
	.cfi_startproc
## %bb.0:
	push	rbp
	.cfi_def_cfa_offset 16
	.cfi_offset rbp, -16
	mov	rbp, rsp
	.cfi_def_cfa_register rbp
	sub	rsp, 48
                                        ## kill: def $dl killed $dl killed $edx
	mov	qword ptr [rbp - 8], rdi
	mov	qword ptr [rbp - 16], rsi
	mov	byte ptr [rbp - 17], dl
	mov	rax, qword ptr [rbp - 8]
Ltmp118:
	.loc	4 1994 8 prologue_end           ## /usr/local/opt/llvm/bin/../include/c++/v1/string:1994:8
	mov	rdi, rax
	lea	rsi, [rbp - 24]
	lea	rdx, [rbp - 32]
	mov	qword ptr [rbp - 40], rax       ## 8-byte Spill
	call	__ZNSt3__117__compressed_pairINS_12basic_stringIcNS_11char_traitsIcEENS_9allocatorIcEEE5__repES5_EC1INS_18__default_init_tagESA_EEOT_OT0_
Ltmp119:
	.loc	4 1996 12                       ## /usr/local/opt/llvm/bin/../include/c++/v1/string:1996:12
	mov	rsi, qword ptr [rbp - 16]
	mov	rdi, qword ptr [rbp - 40]       ## 8-byte Reload
	.loc	4 1996 5 is_stmt 0              ## /usr/local/opt/llvm/bin/../include/c++/v1/string:1996:5
	movsx	edx, byte ptr [rbp - 17]
	call	__ZNSt3__112basic_stringIcNS_11char_traitsIcEENS_9allocatorIcEEE6__initEmc
Ltmp120:
	.loc	4 2000 1 is_stmt 1              ## /usr/local/opt/llvm/bin/../include/c++/v1/string:2000:1
	add	rsp, 48
	pop	rbp
	ret
Ltmp121:
Lfunc_end19:
	.cfi_endproc
                                        ## -- End function
	.globl	__ZNSt3__117__compressed_pairINS_12basic_stringIcNS_11char_traitsIcEENS_9allocatorIcEEE5__repES5_EC1INS_18__default_init_tagESA_EEOT_OT0_ ## -- Begin function _ZNSt3__117__compressed_pairINS_12basic_stringIcNS_11char_traitsIcEENS_9allocatorIcEEE5__repES5_EC1INS_18__default_init_tagESA_EEOT_OT0_
	.weak_def_can_be_hidden	__ZNSt3__117__compressed_pairINS_12basic_stringIcNS_11char_traitsIcEENS_9allocatorIcEEE5__repES5_EC1INS_18__default_init_tagESA_EEOT_OT0_
	.p2align	4, 0x90
__ZNSt3__117__compressed_pairINS_12basic_stringIcNS_11char_traitsIcEENS_9allocatorIcEEE5__repES5_EC1INS_18__default_init_tagESA_EEOT_OT0_: ## @_ZNSt3__117__compressed_pairINS_12basic_stringIcNS_11char_traitsIcEENS_9allocatorIcEEE5__repES5_EC1INS_18__default_init_tagESA_EEOT_OT0_
Lfunc_begin20:
	.loc	5 2188 0                        ## /usr/local/opt/llvm/bin/../include/c++/v1/memory:2188:0
	.cfi_startproc
## %bb.0:
	push	rbp
	.cfi_def_cfa_offset 16
	.cfi_offset rbp, -16
	mov	rbp, rsp
	.cfi_def_cfa_register rbp
	sub	rsp, 32
	mov	qword ptr [rbp - 8], rdi
	mov	qword ptr [rbp - 16], rsi
	mov	qword ptr [rbp - 24], rdx
	mov	rdi, qword ptr [rbp - 8]
Ltmp122:
	.loc	5 2188 74 prologue_end          ## /usr/local/opt/llvm/bin/../include/c++/v1/memory:2188:74
	mov	rsi, qword ptr [rbp - 16]
	mov	rdx, qword ptr [rbp - 24]
	call	__ZNSt3__117__compressed_pairINS_12basic_stringIcNS_11char_traitsIcEENS_9allocatorIcEEE5__repES5_EC2INS_18__default_init_tagESA_EEOT_OT0_
	.loc	5 2188 75 is_stmt 0             ## /usr/local/opt/llvm/bin/../include/c++/v1/memory:2188:75
	add	rsp, 32
	pop	rbp
	ret
Ltmp123:
Lfunc_end20:
	.cfi_endproc
                                        ## -- End function
	.globl	__ZNSt3__117__compressed_pairINS_12basic_stringIcNS_11char_traitsIcEENS_9allocatorIcEEE5__repES5_EC2INS_18__default_init_tagESA_EEOT_OT0_ ## -- Begin function _ZNSt3__117__compressed_pairINS_12basic_stringIcNS_11char_traitsIcEENS_9allocatorIcEEE5__repES5_EC2INS_18__default_init_tagESA_EEOT_OT0_
	.weak_def_can_be_hidden	__ZNSt3__117__compressed_pairINS_12basic_stringIcNS_11char_traitsIcEENS_9allocatorIcEEE5__repES5_EC2INS_18__default_init_tagESA_EEOT_OT0_
	.p2align	4, 0x90
__ZNSt3__117__compressed_pairINS_12basic_stringIcNS_11char_traitsIcEENS_9allocatorIcEEE5__repES5_EC2INS_18__default_init_tagESA_EEOT_OT0_: ## @_ZNSt3__117__compressed_pairINS_12basic_stringIcNS_11char_traitsIcEENS_9allocatorIcEEE5__repES5_EC2INS_18__default_init_tagESA_EEOT_OT0_
Lfunc_begin21:
	.loc	5 2188 0 is_stmt 1              ## /usr/local/opt/llvm/bin/../include/c++/v1/memory:2188:0
	.cfi_startproc
## %bb.0:
	push	rbp
	.cfi_def_cfa_offset 16
	.cfi_offset rbp, -16
	mov	rbp, rsp
	.cfi_def_cfa_register rbp
	sub	rsp, 80
	mov	qword ptr [rbp - 8], rdi
	mov	qword ptr [rbp - 16], rsi
	mov	qword ptr [rbp - 24], rdx
	mov	rax, qword ptr [rbp - 8]
Ltmp124:
	.loc	5 2188 74 prologue_end          ## /usr/local/opt/llvm/bin/../include/c++/v1/memory:2188:74
	mov	rcx, rax
	.loc	5 2188 34 is_stmt 0             ## /usr/local/opt/llvm/bin/../include/c++/v1/memory:2188:34
	mov	rdi, qword ptr [rbp - 16]
	mov	qword ptr [rbp - 48], rax       ## 8-byte Spill
	mov	qword ptr [rbp - 56], rcx       ## 8-byte Spill
	.loc	5 2188 16                       ## /usr/local/opt/llvm/bin/../include/c++/v1/memory:2188:16
	call	__ZNSt3__17forwardINS_18__default_init_tagEEEOT_RNS_16remove_referenceIS2_E4typeE
	mov	rdi, qword ptr [rbp - 56]       ## 8-byte Reload
	mov	qword ptr [rbp - 64], rax       ## 8-byte Spill
	.loc	5 2188 9                        ## /usr/local/opt/llvm/bin/../include/c++/v1/memory:2188:9
	call	__ZNSt3__122__compressed_pair_elemINS_12basic_stringIcNS_11char_traitsIcEENS_9allocatorIcEEE5__repELi0ELb0EEC2ENS_18__default_init_tagE
	mov	rax, qword ptr [rbp - 48]       ## 8-byte Reload
	.loc	5 2188 67                       ## /usr/local/opt/llvm/bin/../include/c++/v1/memory:2188:67
	mov	rdi, qword ptr [rbp - 24]
	mov	qword ptr [rbp - 72], rax       ## 8-byte Spill
	.loc	5 2188 49                       ## /usr/local/opt/llvm/bin/../include/c++/v1/memory:2188:49
	call	__ZNSt3__17forwardINS_18__default_init_tagEEEOT_RNS_16remove_referenceIS2_E4typeE
	mov	rdi, qword ptr [rbp - 72]       ## 8-byte Reload
	mov	qword ptr [rbp - 80], rax       ## 8-byte Spill
	.loc	5 2188 42                       ## /usr/local/opt/llvm/bin/../include/c++/v1/memory:2188:42
	call	__ZNSt3__122__compressed_pair_elemINS_9allocatorIcEELi1ELb1EEC2ENS_18__default_init_tagE
	.loc	5 2188 75                       ## /usr/local/opt/llvm/bin/../include/c++/v1/memory:2188:75
	add	rsp, 80
	pop	rbp
	ret
Ltmp125:
Lfunc_end21:
	.cfi_endproc
                                        ## -- End function
	.private_extern	__ZNSt3__17forwardINS_18__default_init_tagEEEOT_RNS_16remove_referenceIS2_E4typeE ## -- Begin function _ZNSt3__17forwardINS_18__default_init_tagEEEOT_RNS_16remove_referenceIS2_E4typeE
	.globl	__ZNSt3__17forwardINS_18__default_init_tagEEEOT_RNS_16remove_referenceIS2_E4typeE
	.weak_definition	__ZNSt3__17forwardINS_18__default_init_tagEEEOT_RNS_16remove_referenceIS2_E4typeE
	.p2align	4, 0x90
__ZNSt3__17forwardINS_18__default_init_tagEEEOT_RNS_16remove_referenceIS2_E4typeE: ## @_ZNSt3__17forwardINS_18__default_init_tagEEEOT_RNS_16remove_referenceIS2_E4typeE
Lfunc_begin22:
	.loc	6 2628 0 is_stmt 1              ## /usr/local/opt/llvm/bin/../include/c++/v1/type_traits:2628:0
	.cfi_startproc
## %bb.0:
	push	rbp
	.cfi_def_cfa_offset 16
	.cfi_offset rbp, -16
	mov	rbp, rsp
	.cfi_def_cfa_register rbp
	mov	qword ptr [rbp - 8], rdi
Ltmp126:
	.loc	6 2629 31 prologue_end          ## /usr/local/opt/llvm/bin/../include/c++/v1/type_traits:2629:31
	mov	rax, qword ptr [rbp - 8]
	.loc	6 2629 5 is_stmt 0              ## /usr/local/opt/llvm/bin/../include/c++/v1/type_traits:2629:5
	pop	rbp
	ret
Ltmp127:
Lfunc_end22:
	.cfi_endproc
                                        ## -- End function
	.private_extern	__ZNSt3__122__compressed_pair_elemINS_12basic_stringIcNS_11char_traitsIcEENS_9allocatorIcEEE5__repELi0ELb0EEC2ENS_18__default_init_tagE ## -- Begin function _ZNSt3__122__compressed_pair_elemINS_12basic_stringIcNS_11char_traitsIcEENS_9allocatorIcEEE5__repELi0ELb0EEC2ENS_18__default_init_tagE
	.globl	__ZNSt3__122__compressed_pair_elemINS_12basic_stringIcNS_11char_traitsIcEENS_9allocatorIcEEE5__repELi0ELb0EEC2ENS_18__default_init_tagE
	.weak_def_can_be_hidden	__ZNSt3__122__compressed_pair_elemINS_12basic_stringIcNS_11char_traitsIcEENS_9allocatorIcEEE5__repELi0ELb0EEC2ENS_18__default_init_tagE
	.p2align	4, 0x90
__ZNSt3__122__compressed_pair_elemINS_12basic_stringIcNS_11char_traitsIcEENS_9allocatorIcEEE5__repELi0ELb0EEC2ENS_18__default_init_tagE: ## @_ZNSt3__122__compressed_pair_elemINS_12basic_stringIcNS_11char_traitsIcEENS_9allocatorIcEEE5__repELi0ELb0EEC2ENS_18__default_init_tagE
Lfunc_begin23:
	.loc	5 2093 0 is_stmt 1              ## /usr/local/opt/llvm/bin/../include/c++/v1/memory:2093:0
	.cfi_startproc
## %bb.0:
	push	rbp
	.cfi_def_cfa_offset 16
	.cfi_offset rbp, -16
	mov	rbp, rsp
	.cfi_def_cfa_register rbp
	mov	qword ptr [rbp - 16], rdi
Ltmp128:
	.loc	5 2093 47 prologue_end          ## /usr/local/opt/llvm/bin/../include/c++/v1/memory:2093:47
	pop	rbp
	ret
Ltmp129:
Lfunc_end23:
	.cfi_endproc
                                        ## -- End function
	.private_extern	__ZNSt3__122__compressed_pair_elemINS_9allocatorIcEELi1ELb1EEC2ENS_18__default_init_tagE ## -- Begin function _ZNSt3__122__compressed_pair_elemINS_9allocatorIcEELi1ELb1EEC2ENS_18__default_init_tagE
	.globl	__ZNSt3__122__compressed_pair_elemINS_9allocatorIcEELi1ELb1EEC2ENS_18__default_init_tagE
	.weak_def_can_be_hidden	__ZNSt3__122__compressed_pair_elemINS_9allocatorIcEELi1ELb1EEC2ENS_18__default_init_tagE
	.p2align	4, 0x90
__ZNSt3__122__compressed_pair_elemINS_9allocatorIcEELi1ELb1EEC2ENS_18__default_init_tagE: ## @_ZNSt3__122__compressed_pair_elemINS_9allocatorIcEELi1ELb1EEC2ENS_18__default_init_tagE
Lfunc_begin24:
	.loc	5 2134 0                        ## /usr/local/opt/llvm/bin/../include/c++/v1/memory:2134:0
	.cfi_startproc
## %bb.0:
	push	rbp
	.cfi_def_cfa_offset 16
	.cfi_offset rbp, -16
	mov	rbp, rsp
	.cfi_def_cfa_register rbp
	sub	rsp, 16
	mov	qword ptr [rbp - 16], rdi
	mov	rax, qword ptr [rbp - 16]
Ltmp130:
	.loc	5 2134 3 prologue_end           ## /usr/local/opt/llvm/bin/../include/c++/v1/memory:2134:3
	mov	rdi, rax
	call	__ZNSt3__19allocatorIcEC2Ev
	.loc	5 2134 47 is_stmt 0             ## /usr/local/opt/llvm/bin/../include/c++/v1/memory:2134:47
	add	rsp, 16
	pop	rbp
	ret
Ltmp131:
Lfunc_end24:
	.cfi_endproc
                                        ## -- End function
	.private_extern	__ZNSt3__19allocatorIcEC2Ev ## -- Begin function _ZNSt3__19allocatorIcEC2Ev
	.globl	__ZNSt3__19allocatorIcEC2Ev
	.weak_def_can_be_hidden	__ZNSt3__19allocatorIcEC2Ev
	.p2align	4, 0x90
__ZNSt3__19allocatorIcEC2Ev:            ## @_ZNSt3__19allocatorIcEC2Ev
Lfunc_begin25:
	.loc	5 1768 0 is_stmt 1              ## /usr/local/opt/llvm/bin/../include/c++/v1/memory:1768:0
	.cfi_startproc
## %bb.0:
	push	rbp
	.cfi_def_cfa_offset 16
	.cfi_offset rbp, -16
	mov	rbp, rsp
	.cfi_def_cfa_register rbp
	mov	qword ptr [rbp - 8], rdi
Ltmp132:
	.loc	5 1768 28 prologue_end          ## /usr/local/opt/llvm/bin/../include/c++/v1/memory:1768:28
	pop	rbp
	ret
Ltmp133:
Lfunc_end25:
	.cfi_endproc
                                        ## -- End function
	.private_extern	__ZNSt3__112__to_addressIKcEEPT_S3_ ## -- Begin function _ZNSt3__112__to_addressIKcEEPT_S3_
	.globl	__ZNSt3__112__to_addressIKcEEPT_S3_
	.weak_definition	__ZNSt3__112__to_addressIKcEEPT_S3_
	.p2align	4, 0x90
__ZNSt3__112__to_addressIKcEEPT_S3_:    ## @_ZNSt3__112__to_addressIKcEEPT_S3_
Lfunc_begin26:
	.loc	5 1141 0                        ## /usr/local/opt/llvm/bin/../include/c++/v1/memory:1141:0
	.cfi_startproc
## %bb.0:
	push	rbp
	.cfi_def_cfa_offset 16
	.cfi_offset rbp, -16
	mov	rbp, rsp
	.cfi_def_cfa_register rbp
	mov	qword ptr [rbp - 8], rdi
Ltmp134:
	.loc	5 1143 12 prologue_end          ## /usr/local/opt/llvm/bin/../include/c++/v1/memory:1143:12
	mov	rax, qword ptr [rbp - 8]
	.loc	5 1143 5 is_stmt 0              ## /usr/local/opt/llvm/bin/../include/c++/v1/memory:1143:5
	pop	rbp
	ret
Ltmp135:
Lfunc_end26:
	.cfi_endproc
                                        ## -- End function
	.private_extern	__ZNKSt3__112basic_stringIcNS_11char_traitsIcEENS_9allocatorIcEEE13__get_pointerEv ## -- Begin function _ZNKSt3__112basic_stringIcNS_11char_traitsIcEENS_9allocatorIcEEE13__get_pointerEv
	.globl	__ZNKSt3__112basic_stringIcNS_11char_traitsIcEENS_9allocatorIcEEE13__get_pointerEv
	.weak_definition	__ZNKSt3__112basic_stringIcNS_11char_traitsIcEENS_9allocatorIcEEE13__get_pointerEv
	.p2align	4, 0x90
__ZNKSt3__112basic_stringIcNS_11char_traitsIcEENS_9allocatorIcEEE13__get_pointerEv: ## @_ZNKSt3__112basic_stringIcNS_11char_traitsIcEENS_9allocatorIcEEE13__get_pointerEv
Lfunc_begin27:
	.loc	4 1517 0 is_stmt 1              ## /usr/local/opt/llvm/bin/../include/c++/v1/string:1517:0
	.cfi_startproc
## %bb.0:
	push	rbp
	.cfi_def_cfa_offset 16
	.cfi_offset rbp, -16
	mov	rbp, rsp
	.cfi_def_cfa_register rbp
	sub	rsp, 32
	mov	qword ptr [rbp - 8], rdi
	mov	rax, qword ptr [rbp - 8]
Ltmp136:
	.loc	4 1517 17 prologue_end          ## /usr/local/opt/llvm/bin/../include/c++/v1/string:1517:17
	mov	rdi, rax
	mov	qword ptr [rbp - 16], rax       ## 8-byte Spill
	call	__ZNKSt3__112basic_stringIcNS_11char_traitsIcEENS_9allocatorIcEEE9__is_longEv
	test	al, 1
	jne	LBB27_1
	jmp	LBB27_2
LBB27_1:
	.loc	4 0 17 is_stmt 0                ## /usr/local/opt/llvm/bin/../include/c++/v1/string:0:17
	mov	rdi, qword ptr [rbp - 16]       ## 8-byte Reload
	.loc	4 1517 31                       ## /usr/local/opt/llvm/bin/../include/c++/v1/string:1517:31
	call	__ZNKSt3__112basic_stringIcNS_11char_traitsIcEENS_9allocatorIcEEE18__get_long_pointerEv
	mov	qword ptr [rbp - 24], rax       ## 8-byte Spill
	.loc	4 1517 17                       ## /usr/local/opt/llvm/bin/../include/c++/v1/string:1517:17
	jmp	LBB27_3
LBB27_2:
	.loc	4 0 17                          ## /usr/local/opt/llvm/bin/../include/c++/v1/string:0:17
	mov	rdi, qword ptr [rbp - 16]       ## 8-byte Reload
	.loc	4 1517 54                       ## /usr/local/opt/llvm/bin/../include/c++/v1/string:1517:54
	call	__ZNKSt3__112basic_stringIcNS_11char_traitsIcEENS_9allocatorIcEEE19__get_short_pointerEv
	mov	qword ptr [rbp - 24], rax       ## 8-byte Spill
LBB27_3:
	.loc	4 0 54                          ## /usr/local/opt/llvm/bin/../include/c++/v1/string:0:54
	mov	rax, qword ptr [rbp - 24]       ## 8-byte Reload
	.loc	4 1517 10                       ## /usr/local/opt/llvm/bin/../include/c++/v1/string:1517:10
	add	rsp, 32
	pop	rbp
	ret
Ltmp137:
Lfunc_end27:
	.cfi_endproc
                                        ## -- End function
	.private_extern	__ZNKSt3__112basic_stringIcNS_11char_traitsIcEENS_9allocatorIcEEE9__is_longEv ## -- Begin function _ZNKSt3__112basic_stringIcNS_11char_traitsIcEENS_9allocatorIcEEE9__is_longEv
	.globl	__ZNKSt3__112basic_stringIcNS_11char_traitsIcEENS_9allocatorIcEEE9__is_longEv
	.weak_definition	__ZNKSt3__112basic_stringIcNS_11char_traitsIcEENS_9allocatorIcEEE9__is_longEv
	.p2align	4, 0x90
__ZNKSt3__112basic_stringIcNS_11char_traitsIcEENS_9allocatorIcEEE9__is_longEv: ## @_ZNKSt3__112basic_stringIcNS_11char_traitsIcEENS_9allocatorIcEEE9__is_longEv
Lfunc_begin28:
	.loc	4 1423 0 is_stmt 1              ## /usr/local/opt/llvm/bin/../include/c++/v1/string:1423:0
	.cfi_startproc
## %bb.0:
	push	rbp
	.cfi_def_cfa_offset 16
	.cfi_offset rbp, -16
	mov	rbp, rsp
	.cfi_def_cfa_register rbp
	sub	rsp, 16
	mov	qword ptr [rbp - 8], rdi
	mov	rdi, qword ptr [rbp - 8]
Ltmp138:
	.loc	4 1423 27 prologue_end          ## /usr/local/opt/llvm/bin/../include/c++/v1/string:1423:27
	call	__ZNKSt3__117__compressed_pairINS_12basic_stringIcNS_11char_traitsIcEENS_9allocatorIcEEE5__repES5_E5firstEv
	.loc	4 1423 22 is_stmt 0             ## /usr/local/opt/llvm/bin/../include/c++/v1/string:1423:22
	movzx	ecx, byte ptr [rax]
	mov	eax, ecx
	.loc	4 1423 47                       ## /usr/local/opt/llvm/bin/../include/c++/v1/string:1423:47
	and	rax, 1
	.loc	4 1423 22                       ## /usr/local/opt/llvm/bin/../include/c++/v1/string:1423:22
	cmp	rax, 0
	setne	dl
	.loc	4 1423 10                       ## /usr/local/opt/llvm/bin/../include/c++/v1/string:1423:10
	and	dl, 1
	movzx	eax, dl
	add	rsp, 16
	pop	rbp
	ret
Ltmp139:
Lfunc_end28:
	.cfi_endproc
                                        ## -- End function
	.private_extern	__ZNKSt3__112basic_stringIcNS_11char_traitsIcEENS_9allocatorIcEEE18__get_long_pointerEv ## -- Begin function _ZNKSt3__112basic_stringIcNS_11char_traitsIcEENS_9allocatorIcEEE18__get_long_pointerEv
	.globl	__ZNKSt3__112basic_stringIcNS_11char_traitsIcEENS_9allocatorIcEEE18__get_long_pointerEv
	.weak_definition	__ZNKSt3__112basic_stringIcNS_11char_traitsIcEENS_9allocatorIcEEE18__get_long_pointerEv
	.p2align	4, 0x90
__ZNKSt3__112basic_stringIcNS_11char_traitsIcEENS_9allocatorIcEEE18__get_long_pointerEv: ## @_ZNKSt3__112basic_stringIcNS_11char_traitsIcEENS_9allocatorIcEEE18__get_long_pointerEv
Lfunc_begin29:
	.loc	4 1505 0 is_stmt 1              ## /usr/local/opt/llvm/bin/../include/c++/v1/string:1505:0
	.cfi_startproc
## %bb.0:
	push	rbp
	.cfi_def_cfa_offset 16
	.cfi_offset rbp, -16
	mov	rbp, rsp
	.cfi_def_cfa_register rbp
	sub	rsp, 16
	mov	qword ptr [rbp - 8], rdi
	mov	rdi, qword ptr [rbp - 8]
Ltmp140:
	.loc	4 1505 22 prologue_end          ## /usr/local/opt/llvm/bin/../include/c++/v1/string:1505:22
	call	__ZNKSt3__117__compressed_pairINS_12basic_stringIcNS_11char_traitsIcEENS_9allocatorIcEEE5__repES5_E5firstEv
	.loc	4 1505 34 is_stmt 0             ## /usr/local/opt/llvm/bin/../include/c++/v1/string:1505:34
	mov	rax, qword ptr [rax + 16]
	.loc	4 1505 10                       ## /usr/local/opt/llvm/bin/../include/c++/v1/string:1505:10
	add	rsp, 16
	pop	rbp
	ret
Ltmp141:
Lfunc_end29:
	.cfi_endproc
                                        ## -- End function
	.private_extern	__ZNKSt3__112basic_stringIcNS_11char_traitsIcEENS_9allocatorIcEEE19__get_short_pointerEv ## -- Begin function _ZNKSt3__112basic_stringIcNS_11char_traitsIcEENS_9allocatorIcEEE19__get_short_pointerEv
	.globl	__ZNKSt3__112basic_stringIcNS_11char_traitsIcEENS_9allocatorIcEEE19__get_short_pointerEv
	.weak_definition	__ZNKSt3__112basic_stringIcNS_11char_traitsIcEENS_9allocatorIcEEE19__get_short_pointerEv
	.p2align	4, 0x90
__ZNKSt3__112basic_stringIcNS_11char_traitsIcEENS_9allocatorIcEEE19__get_short_pointerEv: ## @_ZNKSt3__112basic_stringIcNS_11char_traitsIcEENS_9allocatorIcEEE19__get_short_pointerEv
Lfunc_begin30:
	.loc	4 1511 0 is_stmt 1              ## /usr/local/opt/llvm/bin/../include/c++/v1/string:1511:0
	.cfi_startproc
## %bb.0:
	push	rbp
	.cfi_def_cfa_offset 16
	.cfi_offset rbp, -16
	mov	rbp, rsp
	.cfi_def_cfa_register rbp
	sub	rsp, 16
	mov	qword ptr [rbp - 8], rdi
	mov	rdi, qword ptr [rbp - 8]
Ltmp142:
	.loc	4 1511 64 prologue_end          ## /usr/local/opt/llvm/bin/../include/c++/v1/string:1511:64
	call	__ZNKSt3__117__compressed_pairINS_12basic_stringIcNS_11char_traitsIcEENS_9allocatorIcEEE5__repES5_E5firstEv
	.loc	4 1511 76 is_stmt 0             ## /usr/local/opt/llvm/bin/../include/c++/v1/string:1511:76
	add	rax, 1
	.loc	4 1511 17                       ## /usr/local/opt/llvm/bin/../include/c++/v1/string:1511:17
	mov	rdi, rax
	call	__ZNSt3__114pointer_traitsIPKcE10pointer_toERS1_
	.loc	4 1511 10                       ## /usr/local/opt/llvm/bin/../include/c++/v1/string:1511:10
	add	rsp, 16
	pop	rbp
	ret
Ltmp143:
Lfunc_end30:
	.cfi_endproc
                                        ## -- End function
	.private_extern	__ZNKSt3__117__compressed_pairINS_12basic_stringIcNS_11char_traitsIcEENS_9allocatorIcEEE5__repES5_E5firstEv ## -- Begin function _ZNKSt3__117__compressed_pairINS_12basic_stringIcNS_11char_traitsIcEENS_9allocatorIcEEE5__repES5_E5firstEv
	.globl	__ZNKSt3__117__compressed_pairINS_12basic_stringIcNS_11char_traitsIcEENS_9allocatorIcEEE5__repES5_E5firstEv
	.weak_definition	__ZNKSt3__117__compressed_pairINS_12basic_stringIcNS_11char_traitsIcEENS_9allocatorIcEEE5__repES5_E5firstEv
	.p2align	4, 0x90
__ZNKSt3__117__compressed_pairINS_12basic_stringIcNS_11char_traitsIcEENS_9allocatorIcEEE5__repES5_E5firstEv: ## @_ZNKSt3__117__compressed_pairINS_12basic_stringIcNS_11char_traitsIcEENS_9allocatorIcEEE5__repES5_E5firstEv
Lfunc_begin31:
	.loc	5 2207 0 is_stmt 1              ## /usr/local/opt/llvm/bin/../include/c++/v1/memory:2207:0
	.cfi_startproc
## %bb.0:
	push	rbp
	.cfi_def_cfa_offset 16
	.cfi_offset rbp, -16
	mov	rbp, rsp
	.cfi_def_cfa_register rbp
	sub	rsp, 16
	mov	qword ptr [rbp - 8], rdi
	mov	rax, qword ptr [rbp - 8]
Ltmp144:
	.loc	5 2208 46 prologue_end          ## /usr/local/opt/llvm/bin/../include/c++/v1/memory:2208:46
	mov	rdi, rax
	call	__ZNKSt3__122__compressed_pair_elemINS_12basic_stringIcNS_11char_traitsIcEENS_9allocatorIcEEE5__repELi0ELb0EE5__getEv
	.loc	5 2208 5 is_stmt 0              ## /usr/local/opt/llvm/bin/../include/c++/v1/memory:2208:5
	add	rsp, 16
	pop	rbp
	ret
Ltmp145:
Lfunc_end31:
	.cfi_endproc
                                        ## -- End function
	.private_extern	__ZNKSt3__122__compressed_pair_elemINS_12basic_stringIcNS_11char_traitsIcEENS_9allocatorIcEEE5__repELi0ELb0EE5__getEv ## -- Begin function _ZNKSt3__122__compressed_pair_elemINS_12basic_stringIcNS_11char_traitsIcEENS_9allocatorIcEEE5__repELi0ELb0EE5__getEv
	.globl	__ZNKSt3__122__compressed_pair_elemINS_12basic_stringIcNS_11char_traitsIcEENS_9allocatorIcEEE5__repELi0ELb0EE5__getEv
	.weak_definition	__ZNKSt3__122__compressed_pair_elemINS_12basic_stringIcNS_11char_traitsIcEENS_9allocatorIcEEE5__repELi0ELb0EE5__getEv
	.p2align	4, 0x90
__ZNKSt3__122__compressed_pair_elemINS_12basic_stringIcNS_11char_traitsIcEENS_9allocatorIcEEE5__repELi0ELb0EE5__getEv: ## @_ZNKSt3__122__compressed_pair_elemINS_12basic_stringIcNS_11char_traitsIcEENS_9allocatorIcEEE5__repELi0ELb0EE5__getEv
Lfunc_begin32:
	.loc	5 2119 0 is_stmt 1              ## /usr/local/opt/llvm/bin/../include/c++/v1/memory:2119:0
	.cfi_startproc
## %bb.0:
	push	rbp
	.cfi_def_cfa_offset 16
	.cfi_offset rbp, -16
	mov	rbp, rsp
	.cfi_def_cfa_register rbp
	mov	qword ptr [rbp - 8], rdi
	mov	rax, qword ptr [rbp - 8]
Ltmp146:
	.loc	5 2119 45 prologue_end          ## /usr/local/opt/llvm/bin/../include/c++/v1/memory:2119:45
	pop	rbp
	ret
Ltmp147:
Lfunc_end32:
	.cfi_endproc
                                        ## -- End function
	.private_extern	__ZNSt3__114pointer_traitsIPKcE10pointer_toERS1_ ## -- Begin function _ZNSt3__114pointer_traitsIPKcE10pointer_toERS1_
	.globl	__ZNSt3__114pointer_traitsIPKcE10pointer_toERS1_
	.weak_definition	__ZNSt3__114pointer_traitsIPKcE10pointer_toERS1_
	.p2align	4, 0x90
__ZNSt3__114pointer_traitsIPKcE10pointer_toERS1_: ## @_ZNSt3__114pointer_traitsIPKcE10pointer_toERS1_
Lfunc_begin33:
	.loc	5 1007 0                        ## /usr/local/opt/llvm/bin/../include/c++/v1/memory:1007:0
	.cfi_startproc
## %bb.0:
	push	rbp
	.cfi_def_cfa_offset 16
	.cfi_offset rbp, -16
	mov	rbp, rsp
	.cfi_def_cfa_register rbp
	sub	rsp, 16
	mov	qword ptr [rbp - 8], rdi
Ltmp148:
	.loc	5 1007 34 prologue_end          ## /usr/local/opt/llvm/bin/../include/c++/v1/memory:1007:34
	mov	rdi, qword ptr [rbp - 8]
	.loc	5 1007 17 is_stmt 0             ## /usr/local/opt/llvm/bin/../include/c++/v1/memory:1007:17
	call	__ZNSt3__19addressofIKcEEPT_RS2_
	.loc	5 1007 10                       ## /usr/local/opt/llvm/bin/../include/c++/v1/memory:1007:10
	add	rsp, 16
	pop	rbp
	ret
Ltmp149:
Lfunc_end33:
	.cfi_endproc
                                        ## -- End function
	.private_extern	__ZNSt3__19addressofIKcEEPT_RS2_ ## -- Begin function _ZNSt3__19addressofIKcEEPT_RS2_
	.globl	__ZNSt3__19addressofIKcEEPT_RS2_
	.weak_definition	__ZNSt3__19addressofIKcEEPT_RS2_
	.p2align	4, 0x90
__ZNSt3__19addressofIKcEEPT_RS2_:       ## @_ZNSt3__19addressofIKcEEPT_RS2_
Lfunc_begin34:
	.loc	6 606 0 is_stmt 1               ## /usr/local/opt/llvm/bin/../include/c++/v1/type_traits:606:0
	.cfi_startproc
## %bb.0:
	push	rbp
	.cfi_def_cfa_offset 16
	.cfi_offset rbp, -16
	mov	rbp, rsp
	.cfi_def_cfa_register rbp
	mov	qword ptr [rbp - 8], rdi
Ltmp150:
	.loc	6 607 32 prologue_end           ## /usr/local/opt/llvm/bin/../include/c++/v1/type_traits:607:32
	mov	rax, qword ptr [rbp - 8]
	.loc	6 607 5 is_stmt 0               ## /usr/local/opt/llvm/bin/../include/c++/v1/type_traits:607:5
	pop	rbp
	ret
Ltmp151:
Lfunc_end34:
	.cfi_endproc
                                        ## -- End function
	.private_extern	__ZNSt3__119ostreambuf_iteratorIcNS_11char_traitsIcEEEC2ERNS_13basic_ostreamIcS2_EE ## -- Begin function _ZNSt3__119ostreambuf_iteratorIcNS_11char_traitsIcEEEC2ERNS_13basic_ostreamIcS2_EE
	.globl	__ZNSt3__119ostreambuf_iteratorIcNS_11char_traitsIcEEEC2ERNS_13basic_ostreamIcS2_EE
	.weak_def_can_be_hidden	__ZNSt3__119ostreambuf_iteratorIcNS_11char_traitsIcEEEC2ERNS_13basic_ostreamIcS2_EE
	.p2align	4, 0x90
__ZNSt3__119ostreambuf_iteratorIcNS_11char_traitsIcEEEC2ERNS_13basic_ostreamIcS2_EE: ## @_ZNSt3__119ostreambuf_iteratorIcNS_11char_traitsIcEEEC2ERNS_13basic_ostreamIcS2_EE
Lfunc_begin35:
	.loc	13 1162 0 is_stmt 1             ## /usr/local/opt/llvm/bin/../include/c++/v1/iterator:1162:0
	.cfi_startproc
	.cfi_personality 155, ___gxx_personality_v0
	.cfi_lsda 16, Lexception2
## %bb.0:
	push	rbp
	.cfi_def_cfa_offset 16
	.cfi_offset rbp, -16
	mov	rbp, rsp
	.cfi_def_cfa_register rbp
	sub	rsp, 48
	mov	qword ptr [rbp - 8], rdi
	mov	qword ptr [rbp - 16], rsi
	mov	rax, qword ptr [rbp - 8]
Ltmp155:
	.loc	13 1162 19 prologue_end         ## /usr/local/opt/llvm/bin/../include/c++/v1/iterator:1162:19
	mov	rcx, qword ptr [rbp - 16]
	mov	rdx, qword ptr [rcx]
	mov	rdx, qword ptr [rdx - 24]
	add	rcx, rdx
Ltmp152:
	.loc	13 1162 23 is_stmt 0            ## /usr/local/opt/llvm/bin/../include/c++/v1/iterator:1162:23
	mov	rdi, rcx
	mov	qword ptr [rbp - 24], rax       ## 8-byte Spill
	call	__ZNKSt3__19basic_iosIcNS_11char_traitsIcEEE5rdbufEv
Ltmp153:
	mov	qword ptr [rbp - 32], rax       ## 8-byte Spill
	jmp	LBB35_1
LBB35_1:
	.loc	13 0 23                         ## /usr/local/opt/llvm/bin/../include/c++/v1/iterator:0:23
	mov	rax, qword ptr [rbp - 24]       ## 8-byte Reload
	mov	rcx, qword ptr [rbp - 32]       ## 8-byte Reload
	.loc	13 1162 11                      ## /usr/local/opt/llvm/bin/../include/c++/v1/iterator:1162:11
	mov	qword ptr [rax], rcx
	.loc	13 1162 33                      ## /usr/local/opt/llvm/bin/../include/c++/v1/iterator:1162:33
	add	rsp, 48
	pop	rbp
	ret
LBB35_2:
Ltmp154:
	.loc	13 1162 23                      ## /usr/local/opt/llvm/bin/../include/c++/v1/iterator:1162:23
	mov	rdi, rax
	mov	qword ptr [rbp - 40], rdx       ## 8-byte Spill
	call	___clang_call_terminate
Ltmp156:
Lfunc_end35:
	.cfi_endproc
	.section	__TEXT,__gcc_except_tab
	.p2align	2
GCC_except_table35:
Lexception2:
	.byte	255                             ## @LPStart Encoding = omit
	.byte	155                             ## @TType Encoding = indirect pcrel sdata4
	.uleb128 Lttbase1-Lttbaseref1
Lttbaseref1:
	.byte	1                               ## Call site Encoding = uleb128
	.uleb128 Lcst_end2-Lcst_begin2
Lcst_begin2:
	.uleb128 Ltmp152-Lfunc_begin35          ## >> Call Site 1 <<
	.uleb128 Ltmp153-Ltmp152                ##   Call between Ltmp152 and Ltmp153
	.uleb128 Ltmp154-Lfunc_begin35          ##     jumps to Ltmp154
	.byte	1                               ##   On action: 1
Lcst_end2:
	.byte	1                               ## >> Action Record 1 <<
                                        ##   Catch TypeInfo 1
	.byte	0                               ##   No further actions
	.p2align	2
                                        ## >> Catch TypeInfos <<
	.long	0                               ## TypeInfo 1
Lttbase1:
	.p2align	2
                                        ## -- End function
	.section	__TEXT,__text,regular,pure_instructions
	.private_extern	__ZNKSt3__19basic_iosIcNS_11char_traitsIcEEE5rdbufEv ## -- Begin function _ZNKSt3__19basic_iosIcNS_11char_traitsIcEEE5rdbufEv
	.globl	__ZNKSt3__19basic_iosIcNS_11char_traitsIcEEE5rdbufEv
	.weak_definition	__ZNKSt3__19basic_iosIcNS_11char_traitsIcEEE5rdbufEv
	.p2align	4, 0x90
__ZNKSt3__19basic_iosIcNS_11char_traitsIcEEE5rdbufEv: ## @_ZNKSt3__19basic_iosIcNS_11char_traitsIcEEE5rdbufEv
Lfunc_begin36:
	.loc	1 739 0 is_stmt 1               ## /usr/local/opt/llvm/bin/../include/c++/v1/ios:739:0
	.cfi_startproc
## %bb.0:
	push	rbp
	.cfi_def_cfa_offset 16
	.cfi_offset rbp, -16
	mov	rbp, rsp
	.cfi_def_cfa_register rbp
	sub	rsp, 16
	mov	qword ptr [rbp - 8], rdi
	mov	rax, qword ptr [rbp - 8]
Ltmp157:
	.loc	1 740 76 prologue_end           ## /usr/local/opt/llvm/bin/../include/c++/v1/ios:740:76
	mov	rdi, rax
	call	__ZNKSt3__18ios_base5rdbufEv
	.loc	1 740 5 is_stmt 0               ## /usr/local/opt/llvm/bin/../include/c++/v1/ios:740:5
	add	rsp, 16
	pop	rbp
	ret
Ltmp158:
Lfunc_end36:
	.cfi_endproc
                                        ## -- End function
	.private_extern	__ZNKSt3__18ios_base5rdbufEv ## -- Begin function _ZNKSt3__18ios_base5rdbufEv
	.globl	__ZNKSt3__18ios_base5rdbufEv
	.weak_definition	__ZNKSt3__18ios_base5rdbufEv
	.p2align	4, 0x90
__ZNKSt3__18ios_base5rdbufEv:           ## @_ZNKSt3__18ios_base5rdbufEv
Lfunc_begin37:
	.loc	1 348 0 is_stmt 1               ## /usr/local/opt/llvm/bin/../include/c++/v1/ios:348:0
	.cfi_startproc
## %bb.0:
	push	rbp
	.cfi_def_cfa_offset 16
	.cfi_offset rbp, -16
	mov	rbp, rsp
	.cfi_def_cfa_register rbp
	mov	qword ptr [rbp - 8], rdi
	mov	rax, qword ptr [rbp - 8]
Ltmp159:
	.loc	1 348 59 prologue_end           ## /usr/local/opt/llvm/bin/../include/c++/v1/ios:348:59
	mov	rax, qword ptr [rax + 40]
	.loc	1 348 52 is_stmt 0              ## /usr/local/opt/llvm/bin/../include/c++/v1/ios:348:52
	pop	rbp
	ret
Ltmp160:
Lfunc_end37:
	.cfi_endproc
                                        ## -- End function
	.globl	__ZNSt3__111char_traitsIcE11eq_int_typeEii ## -- Begin function _ZNSt3__111char_traitsIcE11eq_int_typeEii
	.weak_definition	__ZNSt3__111char_traitsIcE11eq_int_typeEii
	.p2align	4, 0x90
__ZNSt3__111char_traitsIcE11eq_int_typeEii: ## @_ZNSt3__111char_traitsIcE11eq_int_typeEii
Lfunc_begin38:
	.loc	9 403 0 is_stmt 1               ## /usr/local/opt/llvm/bin/../include/c++/v1/__string:403:0
	.cfi_startproc
## %bb.0:
	push	rbp
	.cfi_def_cfa_offset 16
	.cfi_offset rbp, -16
	mov	rbp, rsp
	.cfi_def_cfa_register rbp
	mov	dword ptr [rbp - 4], edi
	mov	dword ptr [rbp - 8], esi
Ltmp161:
	.loc	9 403 17 prologue_end           ## /usr/local/opt/llvm/bin/../include/c++/v1/__string:403:17
	mov	eax, dword ptr [rbp - 4]
	.loc	9 403 22 is_stmt 0              ## /usr/local/opt/llvm/bin/../include/c++/v1/__string:403:22
	cmp	eax, dword ptr [rbp - 8]
	sete	cl
	.loc	9 403 10                        ## /usr/local/opt/llvm/bin/../include/c++/v1/__string:403:10
	and	cl, 1
	movzx	eax, cl
	pop	rbp
	ret
Ltmp162:
Lfunc_end38:
	.cfi_endproc
                                        ## -- End function
	.globl	__ZNSt3__111char_traitsIcE3eofEv ## -- Begin function _ZNSt3__111char_traitsIcE3eofEv
	.weak_definition	__ZNSt3__111char_traitsIcE3eofEv
	.p2align	4, 0x90
__ZNSt3__111char_traitsIcE3eofEv:       ## @_ZNSt3__111char_traitsIcE3eofEv
Lfunc_begin39:
	.loc	9 405 0 is_stmt 1               ## /usr/local/opt/llvm/bin/../include/c++/v1/__string:405:0
	.cfi_startproc
## %bb.0:
	push	rbp
	.cfi_def_cfa_offset 16
	.cfi_offset rbp, -16
	mov	rbp, rsp
	.cfi_def_cfa_register rbp
Ltmp163:
	.loc	9 405 10 prologue_end           ## /usr/local/opt/llvm/bin/../include/c++/v1/__string:405:10
	mov	eax, 4294967295
	pop	rbp
	ret
Ltmp164:
Lfunc_end39:
	.cfi_endproc
                                        ## -- End function
	.private_extern	__ZNKSt3__19basic_iosIcNS_11char_traitsIcEEE5widenEc ## -- Begin function _ZNKSt3__19basic_iosIcNS_11char_traitsIcEEE5widenEc
	.globl	__ZNKSt3__19basic_iosIcNS_11char_traitsIcEEE5widenEc
	.weak_definition	__ZNKSt3__19basic_iosIcNS_11char_traitsIcEEE5widenEc
	.p2align	4, 0x90
__ZNKSt3__19basic_iosIcNS_11char_traitsIcEEE5widenEc: ## @_ZNKSt3__19basic_iosIcNS_11char_traitsIcEEE5widenEc
Lfunc_begin40:
	.loc	1 777 0                         ## /usr/local/opt/llvm/bin/../include/c++/v1/ios:777:0
	.cfi_startproc
	.cfi_personality 155, ___gxx_personality_v0
	.cfi_lsda 16, Lexception3
## %bb.0:
	push	rbp
	.cfi_def_cfa_offset 16
	.cfi_offset rbp, -16
	mov	rbp, rsp
	.cfi_def_cfa_register rbp
	sub	rsp, 64
                                        ## kill: def $sil killed $sil killed $esi
	mov	qword ptr [rbp - 8], rdi
	mov	byte ptr [rbp - 9], sil
	mov	rsi, qword ptr [rbp - 8]
	lea	rax, [rbp - 24]
Ltmp170:
	.loc	1 778 41 prologue_end           ## /usr/local/opt/llvm/bin/../include/c++/v1/ios:778:41
	mov	rdi, rax
	mov	qword ptr [rbp - 48], rax       ## 8-byte Spill
	call	__ZNKSt3__18ios_base6getlocEv
Ltmp165:
	mov	rdi, qword ptr [rbp - 48]       ## 8-byte Reload
	.loc	1 778 12 is_stmt 0              ## /usr/local/opt/llvm/bin/../include/c++/v1/ios:778:12
	call	__ZNSt3__19use_facetINS_5ctypeIcEEEERKT_RKNS_6localeE
Ltmp166:
	mov	qword ptr [rbp - 56], rax       ## 8-byte Spill
	jmp	LBB40_1
LBB40_1:
	.loc	1 778 57                        ## /usr/local/opt/llvm/bin/../include/c++/v1/ios:778:57
	movsx	esi, byte ptr [rbp - 9]
Ltmp167:
	mov	rdi, qword ptr [rbp - 56]       ## 8-byte Reload
	.loc	1 778 51                        ## /usr/local/opt/llvm/bin/../include/c++/v1/ios:778:51
	call	__ZNKSt3__15ctypeIcE5widenEc
Ltmp168:
	mov	byte ptr [rbp - 57], al         ## 1-byte Spill
	jmp	LBB40_2
LBB40_2:
	.loc	1 778 5                         ## /usr/local/opt/llvm/bin/../include/c++/v1/ios:778:5
	lea	rdi, [rbp - 24]
	call	__ZNSt3__16localeD1Ev
	mov	al, byte ptr [rbp - 57]         ## 1-byte Reload
	movsx	eax, al
	add	rsp, 64
	pop	rbp
	ret
LBB40_3:
Ltmp169:
                                        ## kill: def $edx killed $edx killed $rdx
	.loc	1 779 1 is_stmt 1               ## /usr/local/opt/llvm/bin/../include/c++/v1/ios:779:1
	mov	qword ptr [rbp - 32], rax
	mov	dword ptr [rbp - 36], edx
	.loc	1 778 5                         ## /usr/local/opt/llvm/bin/../include/c++/v1/ios:778:5
	lea	rdi, [rbp - 24]
	call	__ZNSt3__16localeD1Ev
## %bb.4:
	mov	rdi, qword ptr [rbp - 32]
	call	__Unwind_Resume
	ud2
Ltmp171:
Lfunc_end40:
	.cfi_endproc
	.section	__TEXT,__gcc_except_tab
	.p2align	2
GCC_except_table40:
Lexception3:
	.byte	255                             ## @LPStart Encoding = omit
	.byte	255                             ## @TType Encoding = omit
	.byte	1                               ## Call site Encoding = uleb128
	.uleb128 Lcst_end3-Lcst_begin3
Lcst_begin3:
	.uleb128 Lfunc_begin40-Lfunc_begin40    ## >> Call Site 1 <<
	.uleb128 Ltmp165-Lfunc_begin40          ##   Call between Lfunc_begin40 and Ltmp165
	.byte	0                               ##     has no landing pad
	.byte	0                               ##   On action: cleanup
	.uleb128 Ltmp165-Lfunc_begin40          ## >> Call Site 2 <<
	.uleb128 Ltmp168-Ltmp165                ##   Call between Ltmp165 and Ltmp168
	.uleb128 Ltmp169-Lfunc_begin40          ##     jumps to Ltmp169
	.byte	0                               ##   On action: cleanup
	.uleb128 Ltmp168-Lfunc_begin40          ## >> Call Site 3 <<
	.uleb128 Lfunc_end40-Ltmp168            ##   Call between Ltmp168 and Lfunc_end40
	.byte	0                               ##     has no landing pad
	.byte	0                               ##   On action: cleanup
Lcst_end3:
	.p2align	2
                                        ## -- End function
	.section	__TEXT,__text,regular,pure_instructions
	.private_extern	__ZNSt3__19use_facetINS_5ctypeIcEEEERKT_RKNS_6localeE ## -- Begin function _ZNSt3__19use_facetINS_5ctypeIcEEEERKT_RKNS_6localeE
	.globl	__ZNSt3__19use_facetINS_5ctypeIcEEEERKT_RKNS_6localeE
	.weak_definition	__ZNSt3__19use_facetINS_5ctypeIcEEEERKT_RKNS_6localeE
	.p2align	4, 0x90
__ZNSt3__19use_facetINS_5ctypeIcEEEERKT_RKNS_6localeE: ## @_ZNSt3__19use_facetINS_5ctypeIcEEEERKT_RKNS_6localeE
Lfunc_begin41:
	.loc	3 249 0                         ## /usr/local/opt/llvm/bin/../include/c++/v1/__locale:249:0
	.cfi_startproc
## %bb.0:
	push	rbp
	.cfi_def_cfa_offset 16
	.cfi_offset rbp, -16
	mov	rbp, rsp
	.cfi_def_cfa_register rbp
	sub	rsp, 16
	mov	rsi, qword ptr [rip + __ZNSt3__15ctypeIcE2idE@GOTPCREL]
	mov	qword ptr [rbp - 8], rdi
Ltmp172:
	.loc	3 250 40 prologue_end           ## /usr/local/opt/llvm/bin/../include/c++/v1/__locale:250:40
	mov	rdi, qword ptr [rbp - 8]
	.loc	3 250 44 is_stmt 0              ## /usr/local/opt/llvm/bin/../include/c++/v1/__locale:250:44
	call	__ZNKSt3__16locale9use_facetERNS0_2idE
	.loc	3 250 5                         ## /usr/local/opt/llvm/bin/../include/c++/v1/__locale:250:5
	add	rsp, 16
	pop	rbp
	ret
Ltmp173:
Lfunc_end41:
	.cfi_endproc
                                        ## -- End function
	.private_extern	__ZNKSt3__15ctypeIcE5widenEc ## -- Begin function _ZNKSt3__15ctypeIcE5widenEc
	.globl	__ZNKSt3__15ctypeIcE5widenEc
	.weak_definition	__ZNKSt3__15ctypeIcE5widenEc
	.p2align	4, 0x90
__ZNKSt3__15ctypeIcE5widenEc:           ## @_ZNKSt3__15ctypeIcE5widenEc
Lfunc_begin42:
	.loc	3 686 0 is_stmt 1               ## /usr/local/opt/llvm/bin/../include/c++/v1/__locale:686:0
	.cfi_startproc
## %bb.0:
	push	rbp
	.cfi_def_cfa_offset 16
	.cfi_offset rbp, -16
	mov	rbp, rsp
	.cfi_def_cfa_register rbp
	sub	rsp, 16
                                        ## kill: def $sil killed $sil killed $esi
	mov	qword ptr [rbp - 8], rdi
	mov	byte ptr [rbp - 9], sil
	mov	rax, qword ptr [rbp - 8]
Ltmp174:
	.loc	3 687 25 prologue_end           ## /usr/local/opt/llvm/bin/../include/c++/v1/__locale:687:25
	mov	cl, byte ptr [rbp - 9]
	.loc	3 687 16 is_stmt 0              ## /usr/local/opt/llvm/bin/../include/c++/v1/__locale:687:16
	mov	rdx, qword ptr [rax]
	mov	rdi, rax
	movsx	esi, cl
	call	qword ptr [rdx + 56]
	.loc	3 687 9                         ## /usr/local/opt/llvm/bin/../include/c++/v1/__locale:687:9
	movsx	eax, al
	add	rsp, 16
	pop	rbp
	ret
Ltmp175:
Lfunc_end42:
	.cfi_endproc
                                        ## -- End function
	.private_extern	__ZNSt3__18ios_base8setstateEj ## -- Begin function _ZNSt3__18ios_base8setstateEj
	.globl	__ZNSt3__18ios_base8setstateEj
	.weak_definition	__ZNSt3__18ios_base8setstateEj
	.p2align	4, 0x90
__ZNSt3__18ios_base8setstateEj:         ## @_ZNSt3__18ios_base8setstateEj
Lfunc_begin43:
	.loc	1 547 0 is_stmt 1               ## /usr/local/opt/llvm/bin/../include/c++/v1/ios:547:0
	.cfi_startproc
## %bb.0:
	push	rbp
	.cfi_def_cfa_offset 16
	.cfi_offset rbp, -16
	mov	rbp, rsp
	.cfi_def_cfa_register rbp
	sub	rsp, 16
	mov	qword ptr [rbp - 8], rdi
	mov	dword ptr [rbp - 12], esi
	mov	rax, qword ptr [rbp - 8]
Ltmp176:
	.loc	1 548 11 prologue_end           ## /usr/local/opt/llvm/bin/../include/c++/v1/ios:548:11
	mov	ecx, dword ptr [rax + 32]
	.loc	1 548 22 is_stmt 0              ## /usr/local/opt/llvm/bin/../include/c++/v1/ios:548:22
	or	ecx, dword ptr [rbp - 12]
	.loc	1 548 5                         ## /usr/local/opt/llvm/bin/../include/c++/v1/ios:548:5
	mov	rdi, rax
	mov	esi, ecx
	call	__ZNSt3__18ios_base5clearEj
	.loc	1 549 1 is_stmt 1               ## /usr/local/opt/llvm/bin/../include/c++/v1/ios:549:1
	add	rsp, 16
	pop	rbp
	ret
Ltmp177:
Lfunc_end43:
	.cfi_endproc
                                        ## -- End function
	.section	__TEXT,__cstring,cstring_literals
L_.str:                                 ## @.str
	.asciz	"Please enter a array size:  "

L_.str.1:                               ## @.str.1
	.asciz	"Array size must be greater than zero.\n"

L_.str.2:                               ## @.str.2
	.asciz	"\tvec["

L_.str.3:                               ## @.str.3
	.asciz	"] = "

L_.str.4:                               ## @.str.4
	.asciz	"The sum of all array elements is "
